(dp1
S'output'
p2
S"<type 'exceptions.SyntaxError'> invalid syntax (default.py, line 85)"
p3
sS'layer'
p4
S'/home/vikram/web2py/applications/ITWS_Project/controllers/default.py'
p5
sS'code'
p6
S'# -*- coding: utf-8 -*- \r\n\r\n#########################################################################\r\n## This is a samples controller\r\n## - index is the default action of any application\r\n## - user is required for authentication and authorization\r\n## - download is for downloading files uploaded in the db (does streaming)\r\n## - call exposes all registered services (none by default)\r\n#########################################################################  \r\nfrom __future__ import with_statement # This isn\'t required in Python 2.6     \r\n__metaclass__ = type\r\nimport os\r\nimport sys\r\nimport time\r\ntry:\r\n    from PIL import Image\r\nexcept ImportError:\r\n    raise HTTP(200,"Requires the Python Imaging Library installed")\r\nfrom gluon.contrib import simplejson as json\r\nimport urllib\r\nimport datetime\r\nnow=datetime.datetime.now()\r\nsplit_path = os.path.split\r\nsplit_ext = os.path.splitext\r\npath_exists = os.path.exists\r\nnormalize_path = os.path.normpath\r\nabsolute_path = os.path.abspath \r\nencode_urlpath = urllib.quote_plus\r\noutput=os.path.join(request.folder,\'static\',\'test.txt\')\r\n\r\n\r\n\r\ndef filesystem():\r\n    appname=request.application\r\n    return dict(appname=appname)\r\n    \r\n@service.json\r\ndef getinfo(path):\r\n    if path==\'True\':\r\n        path=request.vars.path\r\n    else:\r\n        path=path\r\n    row=db((db.allfiles.filepath==path)&(db.allfiles.user==me)).select()[0]\r\n    abspath=request.folder+path\r\n    iconfolder=\'static/images/fileicons/\'\r\n    absiconlocation=request.folder+iconfolder\r\n    iconlocation=\'/\'+request.application+\'/\'+iconfolder\r\n    filename=row.filename\r\n    filetype=row.filetype\r\n    datecreated=row.datecreated\r\n    datemodified=row.datemodified\r\n    filesize=row.filesize\r\n    thefile = {\r\n            \'Filename\' : filename,\r\n            \'FileType\' : \'\',\r\n            \'Preview\' : iconlocation+\'_Open.png\' if filetype==\'dir\' else \'\' ,\r\n            \'FilePreview\':\'\',\r\n            \'Path\' : path,\r\n            \'Error\' : \'\',\r\n            \'Code\' : 0,\r\n            \'Properties\' : {\r\n                    \'Date Created\' : \'\',\r\n                    \'Date Modified\' : \'\',\r\n                    \'Width\' : \'\',\r\n                    \'Height\' : \'\',\r\n                    \'Size\' : \'\'\r\n             }\r\n            }\r\n            \r\n    imagetypes = set([\'gif\',\'jpg\',\'jpeg\',\'png\',\'bmp\'])      \r\n        \r\n    if filetype==\'dir\':\r\n        thefile[\'FileType\'] = \'Directory\'\r\n    else:\r\n        thefile[\'FileType\'] = filetype  \r\n        if filetype in imagetypes:\r\n            thefile[\'Preview\']=\'/\'+request.application+\'/default/download/\'+row.file\r\n        elif filetype=="mp3" or filetype=="flv":\r\n            thefile[\'FileType\']=\'media\'\r\n            embedfile=\'/\'+request.application+\'/default/download/\'+row.file          \r\n            thefile[\'FilePreview\']=str(plugin_mediaplayer(embedfile,400,300))\r\n            previewPath = iconlocation + filetype.lower() + \'.png\'\r\n            abspreviewPath=absiconlocation+filetype.lower()+\'.png\'\r\n            thefile[\'Preview\'] = previewPath if os.path.exists(abspreviewPath) else iconlocation+\'default.png\'\r\n        elif filetype=="mp4" or filetype="mkv":\r\n            thefile[\'FileType\']=\'media\'\r\n            embedfile=\'/\'+request.application+\'/default/download/\'+row.file          \r\n            thefile[\'FilePreview\']=str(plugin_mediaplayer(embedfile,400,300))\r\n            previewPath = iconlocation + filetype.lower() + \'.png\'\r\n            abspreviewPath=absiconlocation+filetype.lower()+\'.png\'\r\n            thefile[\'Preview\'] = previewPath if os.path.exists(abspreviewPath) else iconlocation+\'default.png\'\r\n        else:\r\n            previewPath = iconlocation + filetype.lower() + \'.png\'\r\n            abspreviewPath=absiconlocation+filetype.lower()+\'.png\'\r\n            thefile[\'Preview\'] = previewPath if os.path.exists(abspreviewPath) else iconlocation+\'default.png\'\r\n        \r\n    thefile[\'Properties\'][\'Date Created\'] = datecreated \r\n    thefile[\'Properties\'][\'Date Modified\'] = datemodified\r\n    thefile[\'Properties\'][\'Size\'] = filesize\r\n    return thefile\r\n     \r\n@service.json   \r\ndef getdata():\r\n    path=request.vars.path\r\n    data=db((db.allfiles.filepath==path)&(db.allfiles.user==me)).select()[0]\r\n    textdata=data.content\r\n    return textdata\r\n\r\ndef updatedata():\r\n    data=request.vars.senddata\r\n    path=request.vars.getpath\r\n    db((db.allfiles.filepath==path)&(db.allfiles.user==me)).update(content=data)\r\n    return \'Updated!!!\'\r\n \r\n@service.json\r\ndef getfolder():   \r\n    path=request.vars.path\r\n    rows=db((db.allfiles.parentpath==path)&(db.allfiles.user==me)).select()    \r\n    result = {}\r\n    for row in rows:\r\n        result[row.filepath]=getinfo(row.filepath)\r\n    return result\r\n\r\ndef browsefiles():\r\n    files=db((db.allfiles.user==me)&(db.allfiles.filetype !=\'dir\')).select()\r\n    result={}\r\n    filetypes= set([\'gif\',\'jpg\',\'png\',\'bmp\',\'swf\'])\r\n    for rfile in files:\r\n        if rfile.filepath[-3:] in filetypes:\r\n            result[rfile.filepath]=getfileinfo(rfile.filepath)\r\n    return dict(result=result,cknum=request.vars.CKEditorFuncNum)\r\n    \r\ndef getfileinfo(path):\r\n    row=db((db.allfiles.filepath==path)&(db.allfiles.user==me)).select()[0]\r\n    abspath=request.folder+path\r\n    iconfolder=\'static/images/fileicons/\'\r\n    absiconlocation=request.folder+iconfolder\r\n    iconlocation=\'/\'+request.application+\'/\'+iconfolder\r\n    filename=row.filename\r\n    filetype=row.filetype\r\n    filesize=row.filesize\r\n    thefile = {\r\n            \'Filename\' : filename,\r\n            \'FileType\' : \'\',\r\n            \'Preview\' : iconlocation+\'_Open.png\' if filetype==\'dir\' else \'\' ,\r\n            \'FilePreview\':\'\',\r\n            \'Path\' : path,\r\n            \'Error\' : \'\',\r\n            \'Code\' : 0,\r\n            \'Properties\' : {\r\n                    \'Width\' : \'\',\r\n                    \'Height\' : \'\',\r\n                    \'Size\' : \'\'\r\n             }\r\n            }\r\n            \r\n    imagetypes = set([\'gif\',\'jpg\',\'jpeg\',\'png\',\'bmp\'])      \r\n        \r\n    if filetype==\'dir\':\r\n        thefile[\'FileType\'] = \'Directory\'\r\n    else:\r\n        thefile[\'FileType\'] = filetype  \r\n        if filetype in imagetypes:\r\n            thefile[\'Preview\']=\'/\'+request.application+\'/default/download/\'+row.file\r\n        elif filetype=="mp3" or filetype=="flv":\r\n            thefile[\'FileType\']=\'media\'\r\n            embedfile=\'/\'+request.application+\'/default/download/\'+row.file          \r\n            thefile[\'FilePreview\']=str(plugin_mediaplayer(embedfile,400,300))\r\n            previewPath = iconlocation + filetype.lower() + \'.png\'\r\n            abspreviewPath=absiconlocation+filetype.lower()+\'.png\'\r\n            thefile[\'Preview\'] = previewPath if os.path.exists(abspreviewPath) else iconlocation+\'default.png\'\r\n        else:\r\n            previewPath = iconlocation + filetype.lower() + \'.png\'\r\n            abspreviewPath=absiconlocation+filetype.lower()+\'.png\'\r\n            thefile[\'Preview\'] = previewPath if os.path.exists(abspreviewPath) else iconlocation+\'default.png\'        \r\n    thefile[\'Properties\'][\'Size\'] = filesize\r\n    return thefile\r\n\r\n\r\ndef dirlist():\r\n   import re\r\n   r=[\'<ul class="jqueryFileTree" style="display: none;">\']\r\n   path=request.post_vars.dir\r\n   rows=db((db.allfiles.parentpath==path)&(db.allfiles.user==me)).select()\r\n   if len(rows)==0 and path==\'/\':\r\n        Directories=[\'Documents\',\'Audios\',\'Videos\',\'Pictures\',\'Other\']\r\n        parentpath=\'/\'\r\n        for directory in Directories:\r\n            filename=directory\r\n            filepath=\'/\'+filename+\'/\'\r\n            db.allfiles.insert(filename=filename,filepath=filepath,parentpath=parentpath,filetype=\'dir\',datecreated=now,user=me)\r\n   rows=db((db.allfiles.parentpath==path)&(db.allfiles.user==me)).select()\r\n   for row in rows:\r\n       if row.filetype==\'dir\':\r\n          r.append(\'<li class="directory collapsed"><a href="#" rel="%s">%s</a></li>\' % (row.filepath,row.filename))    \r\n   r.append(\'</ul>\')\r\n   return r\r\n\r\n@service.json\r\ndef addfolder(param):    \r\n    filename=request.vars.name.replace(\' \',\'_\')\r\n    parentpath=request.vars.path\r\n    filepath=parentpath+filename+\'/\'\r\n    rows=db((db.allfiles.filepath==filepath)&(db.allfiles.user==me)).select()\r\n    recordexists=len(rows)\r\n    if not recordexists:\r\n        db.allfiles.insert(filename=filename,filepath=filepath,parentpath=parentpath,filetype=\'dir\',datecreated=now,user=me)\r\n        result= {\r\n                    \'Parent\' : parentpath,\r\n                    \'Name\' : filename,\r\n                    \'Error\' :\'\',\r\n                    \'Code\' :0\r\n                    }\r\n    else:\r\n        result = {\r\n                    \'Path\' : parentpath,\r\n                    \'Name\' : filename,\r\n                    \'Code\' : 1,\r\n                    \'Error\' : \'Folder already exists\'\r\n                }\r\n    return result\r\n    \r\n@service.json\r\ndef delete(param):\r\n    path=request.vars.path\r\n    #print "<--------------delete---------->"\r\n    #print "path:",path\r\n    filepaths=remove(path,pathset=[])\r\n    for filepath in filepaths:\r\n        if not filepath[-1]==\'/\':\r\n            row=db((db.allfiles.filepath==filepath )&(db.allfiles.user==me)).select()[0]\r\n            filename=row.file\r\n            os.remove(os.path.join(request.folder,\'uploads\',filename))\r\n        db((db.allfiles.filepath==filepath )&(db.allfiles.user==me)).delete()    \r\n    result={\r\n            \'Error\':\'No Error\',\r\n            \'Code\':0,\r\n            \'Path\': path \r\n           }        \r\n    return result\r\n     \r\n@service.json\r\ndef rename(param):\r\n    #print "<---------rename--------->"\r\n    oldpath=request.vars.old  \r\n    #print "oldpath:",oldpath      \r\n    #print "parentpath:",parentpath\r\n    newname = request.vars.new.replace(\' \',\'_\')    \r\n    result={\r\n            \'type\':\'\',\r\n            \'Old Path\':\'\',\r\n            \'New Path\':\'\',\r\n            \'Old Name\':\'\',\r\n            \'New eName\':\'\',\r\n            \'parent\':\'\',\r\n            \'Code\':0,\r\n            \'Error\':\'\'\r\n            } \r\n    if oldpath[-1]==\'/\':\r\n        oldname=split_path(oldpath[:-1])[-1]\r\n        parentpath=split_path(oldpath[:-1])[0]\r\n        if not parentpath==\'/\':\r\n            parentpath=parentpath+\'/\'\r\n        row=db((db.allfiles.parentpath==parentpath)&(db.allfiles.filetype==\'dir\') \\\r\n        &(db.allfiles.filename==newname)&(db.allfiles.user==me)).select()\r\n        if len(row)==1:\r\n            result[\'Code\']=1\r\n            result[\'Error\']=\'Folder already exists\'\r\n            return result\r\n        newpath=parentpath+newname+\'/\'\r\n        result[\'type\']=\'dir\'\r\n        db((db.allfiles.filepath==oldpath)&(db.allfiles.user==me)).update(filepath=newpath,filename=newname,datemodified=now)\r\n        renamedir(oldpath,oldname,newname)\r\n    else:   \r\n        oldname = split_path(oldpath)[-1]\r\n        parentpath = split_path(oldpath)[0]\r\n        if not parentpath==\'/\':\r\n            parentpath=parentpath+\'/\'        \r\n        newpath = parentpath + newname\r\n        row=db((db.allfiles.parentpath==parentpath)&(db.allfiles.filepath==newpath)&(db.allfiles.user==me)).select()\r\n        if len(row)==1:\r\n            result[\'Code\']=1\r\n            result[\'Error\']=\'File already exists\'\r\n            return result\r\n        result[\'type\']=\'file\'\r\n        db((db.allfiles.filepath==oldpath)&(db.allfiles.user==me)).update(filepath=newpath,filename=newname,datemodified=now)\r\n    result[\'parent\']=parentpath\r\n    result[\'Old Path\']= oldpath\r\n    result[\'Old Name\']=oldname\r\n    result[\'New Path\']=newpath\r\n    result[\'New eName\']=newname    \r\n    return result \r\n    \r\ndef renamedir(oldpath,oldname,newname):\r\n    newpath=oldpath.replace(oldname,newname)\r\n    rows=db((db.allfiles.parentpath==oldpath)&(db.allfiles.user==me)).select()\r\n    for row in rows:\r\n        if row.filepath[-1]==\'/\':\r\n            db((db.allfiles.parentpath==oldpath) \\\r\n            &(db.allfiles.user==me)).update(parentpath=row.parentpath.replace(oldname,newname),datemodified=now)\r\n            renamedir(row.filepath,oldname,newname)\r\n            db((db.allfiles.filepath==row.filepath) \\\r\n            &(db.allfiles.user==me)).update(filepath=row.filepath.replace(oldname,newname),datemodified=now)\r\n        else:\r\n            db((db.allfiles.filepath==row.filepath)&(db.allfiles.user==me)). \\\r\n            update(filepath=row.filepath.replace(oldname,newname),parentpath=row.parentpath.replace(oldname,newname),datemodified=now)\r\ndef user():\r\n    """\r\n    exposes:\r\n    http://..../[app]/default/user/login \r\n    http://..../[app]/default/user/logout\r\n    http://..../[app]/default/user/register\r\n    http://..../[app]/default/user/profile\r\n    http://..../[app]/default/user/retrieve_password\r\n    http://..../[app]/default/user/change_password\r\n    use @auth.requires_login()\r\n        @auth.requires_membership(\'group name\')\r\n        @auth.requires_permission(\'read\',\'table name\',record_id)\r\n    to decorate functions that need access control\r\n    """\r\n    return dict(form=auth())\r\n\r\n\r\ndef add():   \r\n    parentpath=request.vars.currentpath\r\n    file=request.vars.file\r\n    filename=file.filename.replace(\' \',\'_\')\r\n    \r\n    filepath=parentpath+filename\r\n    filetype=os.path.splitext(filename)[1][1:]\r\n    row=db((db.allfiles.parentpath==parentpath)&(db.allfiles.filepath==filepath)&(db.allfiles.filename==filename) \\\r\n    &(db.allfiles.user==me)).select()\r\n    if not len(row):    \r\n        db.allfiles.insert(filename=filename,filepath=filepath, \\\r\n            parentpath=parentpath,filetype=filetype,file=db.allfiles.file.store(file.file,filename),datecreated=now,user=me)   \r\n        result = {\r\n                \'Path\' : parentpath,\r\n                \'Name\' : filename,\r\n                \'Error\' :\'\',\r\n                \'Code\':0\r\n            }\r\n    else:\r\n        result = {\r\n                \'Path\' : parentpath,\r\n                \'Name\' : filename,\r\n                \'Error\' : \'File already exists\',\r\n                \'Code\':1\r\n            }\r\n        return \'<textarea>\'+str(result)+\'</textarea>\'\r\n    row=db((db.allfiles.filename==filename)&(db.allfiles.user==me)).select()[0]\r\n    insertedfile=row.file\r\n    outfile=open(output,\'wb\')\r\n    try:\r\n        filepath=os.path.join(request.folder,\'uploads\',insertedfile)\r\n        filesize=os.path.getsize(filepath)\r\n        if filepath[-3:]==\'txt\' or filepath[-4:]==\'html\':\r\n            filepath=os.path.normpath(filepath)\r\n            filein=open(filepath,\'r\')\r\n            dbcontent=filein.read()\r\n            filein.close()\r\n            db((db.allfiles.filename==filename)&(db.allfiles.user==me)).update(filesize=filesize,content=dbcontent)\r\n        else:\r\n            db((db.allfiles.filename==filename)&(db.allfiles.user==me)).update(filesize=filesize)\r\n        outfile.close()        \r\n    except:\r\n        outfile.write(str(sys.exc_info()[1]))\r\n        outfile.close()   \r\n    return \'<textarea>\'+str(result)+\'</textarea>\'\r\n\r\ndef downloadurl():\r\n    """\r\n    allows downloading of uploaded files\r\n    http://..../[app]/default/download/[filename]\r\n    """\r\n    filename=request.vars.filename\r\n    file=db((db.allfiles.filename==filename)&(db.allfiles.user==me)).select()[0]   \r\n    return file.file\r\n\r\ndef download():\r\n    return response.download(request,db)\r\n\r\ndef call():\r\n    """\r\n    exposes services. for example:\r\n    http://..../[app]/default/call/jsonrpc\r\n    decorate with @services.jsonrpc the functions to expose\r\n    supports xml, json, xmlrpc, jsonrpc, amfrpc, rss, csv\r\n    """\r\n    session.forget()\r\n    return service()\r\n\r\n\r\ndef remove(path,pathset):\r\n    if path[-1]==\'/\':\r\n        pathset.append(path)\r\n        rows=db((db.allfiles.parentpath==path)&(db.allfiles.user==me)).select()\r\n        for row in rows:\r\n            if row.filetype==\'dir\':\r\n                remove(row.filepath,pathset=pathset)\r\n            else:\r\n                pathset.append(row.filepath)\r\n    else:\r\n        pathset.append(path)\r\n    return pathset\r\n\nresponse._vars=response._caller(add)\n'
p7
sS'snapshot'
p8
(dp9
S'exception'
p10
(dp11
S'__getslice__'
p12
S"<method-wrapper '__getslice__' of exceptions.SyntaxError object>"
p13
sS'text'
p14
S'\'        elif filetype=="mp4" or filetype="mkv":\\n\''
p15
sS'__str__'
p16
S"<method-wrapper '__str__' of exceptions.SyntaxError object>"
p17
sS'__reduce__'
p18
S'<built-in method __reduce__ of exceptions.SyntaxError object>'
p19
sS'__dict__'
p20
S'{}'
p21
sS'__sizeof__'
p22
S'<built-in method __sizeof__ of exceptions.SyntaxError object>'
p23
sS'__init__'
p24
S"<method-wrapper '__init__' of exceptions.SyntaxError object>"
p25
sS'__setattr__'
p26
S"<method-wrapper '__setattr__' of exceptions.SyntaxError object>"
p27
sS'__reduce_ex__'
p28
S'<built-in method __reduce_ex__ of exceptions.SyntaxError object>'
p29
sS'__new__'
p30
S'<built-in method __new__ of type object>'
p31
sS'__format__'
p32
S'<built-in method __format__ of exceptions.SyntaxError object>'
p33
sS'__class__'
p34
S"<type 'exceptions.SyntaxError'>"
p35
sS'filename'
p36
S"'/home/vikram/web2py/applications/ITWS_Project/controllers/default.py'"
p37
sS'lineno'
p38
S'85'
p39
sS'msg'
p40
S"'invalid syntax'"
p41
sS'__doc__'
p42
S"'Invalid syntax.'"
p43
sS'__getitem__'
p44
S"<method-wrapper '__getitem__' of exceptions.SyntaxError object>"
p45
sS'__setstate__'
p46
S'<built-in method __setstate__ of exceptions.SyntaxError object>'
p47
sS'__getattribute__'
p48
S"<method-wrapper '__getattribute__' of exceptions.SyntaxError object>"
p49
sS'print_file_and_line'
p50
S'None'
p51
sS'args'
p52
S'(\'invalid syntax\', (\'/home/vikram/web2py/applications/ITWS_Project/controllers/default.py\', 85, 41, \'        elif filetype=="mp4" or filetype="mkv":\\n\'))'
p53
sS'__subclasshook__'
p54
S'<built-in method __subclasshook__ of type object>'
p55
sS'offset'
p56
S'41'
p57
sS'__unicode__'
p58
S'<built-in method __unicode__ of exceptions.SyntaxError object>'
p59
sS'__delattr__'
p60
S"<method-wrapper '__delattr__' of exceptions.SyntaxError object>"
p61
sS'__repr__'
p62
S"<method-wrapper '__repr__' of exceptions.SyntaxError object>"
p63
sS'__hash__'
p64
S"<method-wrapper '__hash__' of exceptions.SyntaxError object>"
p65
ssS'evalue'
p66
S'invalid syntax (default.py, line 85)'
p67
sS'request'
p68
cgluon.html
XML_unpickle
p69
(S's\x9dj\x00\x00<div><table><tr><td style="font-weight:bold;vertical-align:top;">ajax</td><td style="vertical-align:top;">:</td><td><div>False</div></td></tr><tr><td style="font-weight:bold;vertical-align:top;">application</td><td style="vertical-align:top;">:</td><td><div>ITWS_Project</div></td></tr><tr><td style="font-weight:bold;vertical-align:top;">args</td><td style="vertical-align:top;">:</td><td><div><table></table></div></td></tr><tr><td style="font-weight:bold;vertical-align:top;">cid</td><td style="vertical-align:top;">:</td><td><div>None</div></td></tr><tr><td style="font-weight:bold;vertical-align:top;">client</td><td style="vertical-align:top;">:</td><td><div>127.0.0.1</div></td></tr><tr><td style="font-weight:bold;vertical-align:top;">controller</td><td style="vertical-align:top;">:</td><td><div>default</div></td></tr><tr><td style="font-weight:bold;vertical-align:top;">cookies</td><td style="vertical-align:top;">:</td><td><div><table><tr><td style="font-weight:bold;vertical-align:top;">csrftoken</td><td style="vertical-align:top;">:</td><td><div>gBhfiujk5WmYVNBqGFOwmpDC98smCiXW<table><tr><td style="font-weight:bold;vertical-align:top;">comment</td><td style="vertical-align:top;">:</td><td><div></div></td></tr><tr><td style="font-weight:bold;vertical-align:top;">domain</td><td style="vertical-align:top;">:</td><td><div></div></td></tr><tr><td style="font-weight:bold;vertical-align:top;">expires</td><td style="vertical-align:top;">:</td><td><div></div></td></tr><tr><td style="font-weight:bold;vertical-align:top;">httponly</td><td style="vertical-align:top;">:</td><td><div></div></td></tr><tr><td style="font-weight:bold;vertical-align:top;">max-age</td><td style="vertical-align:top;">:</td><td><div></div></td></tr><tr><td style="font-weight:bold;vertical-align:top;">path</td><td style="vertical-align:top;">:</td><td><div></div></td></tr><tr><td style="font-weight:bold;vertical-align:top;">secure</td><td style="vertical-align:top;">:</td><td><div></div></td></tr><tr><td style="font-weight:bold;vertical-align:top;">version</td><td style="vertical-align:top;">:</td><td><div></div></td></tr></table></div></td></tr><tr><td style="font-weight:bold;vertical-align:top;">session_id_admin</td><td style="vertical-align:top;">:</td><td><div>127.0.0.1-c6f00af6-52b3-4435-9998-469a73ca6ff6<table><tr><td style="font-weight:bold;vertical-align:top;">comment</td><td style="vertical-align:top;">:</td><td><div></div></td></tr><tr><td style="font-weight:bold;vertical-align:top;">domain</td><td style="vertical-align:top;">:</td><td><div></div></td></tr><tr><td style="font-weight:bold;vertical-align:top;">expires</td><td style="vertical-align:top;">:</td><td><div></div></td></tr><tr><td style="font-weight:bold;vertical-align:top;">httponly</td><td style="vertical-align:top;">:</td><td><div></div></td></tr><tr><td style="font-weight:bold;vertical-align:top;">max-age</td><td style="vertical-align:top;">:</td><td><div></div></td></tr><tr><td style="font-weight:bold;vertical-align:top;">path</td><td style="vertical-align:top;">:</td><td><div></div></td></tr><tr><td style="font-weight:bold;vertical-align:top;">secure</td><td style="vertical-align:top;">:</td><td><div></div></td></tr><tr><td style="font-weight:bold;vertical-align:top;">version</td><td style="vertical-align:top;">:</td><td><div></div></td></tr></table></div></td></tr><tr><td style="font-weight:bold;vertical-align:top;">session_id_filemanager</td><td style="vertical-align:top;">:</td><td><div>127.0.0.1-47e02f32-93f6-4d29-99f0-322a2c80f9d2<table><tr><td style="font-weight:bold;vertical-align:top;">comment</td><td style="vertical-align:top;">:</td><td><div></div></td></tr><tr><td style="font-weight:bold;vertical-align:top;">domain</td><td style="vertical-align:top;">:</td><td><div></div></td></tr><tr><td style="font-weight:bold;vertical-align:top;">expires</td><td style="vertical-align:top;">:</td><td><div></div></td></tr><tr><td style="font-weight:bold;vertical-align:top;">httponly</td><td style="vertical-align:top;">:</td><td><div></div></td></tr><tr><td style="font-weight:bold;vertical-align:top;">max-age</td><td style="vertical-align:top;">:</td><td><div></div></td></tr><tr><td style="font-weight:bold;vertical-align:top;">path</td><td style="vertical-align:top;">:</td><td><div></div></td></tr><tr><td style="font-weight:bold;vertical-align:top;">secure</td><td style="vertical-align:top;">:</td><td><div></div></td></tr><tr><td style="font-weight:bold;vertical-align:top;">version</td><td style="vertical-align:top;">:</td><td><div></div></td></tr></table></div></td></tr><tr><td style="font-weight:bold;vertical-align:top;">session_id_itws_project</td><td style="vertical-align:top;">:</td><td><div>127.0.0.1-8b03b021-cae6-48da-8a96-550f692ed5a1<table><tr><td style="font-weight:bold;vertical-align:top;">comment</td><td style="vertical-align:top;">:</td><td><div></div></td></tr><tr><td style="font-weight:bold;vertical-align:top;">domain</td><td style="vertical-align:top;">:</td><td><div></div></td></tr><tr><td style="font-weight:bold;vertical-align:top;">expires</td><td style="vertical-align:top;">:</td><td><div></div></td></tr><tr><td style="font-weight:bold;vertical-align:top;">httponly</td><td style="vertical-align:top;">:</td><td><div></div></td></tr><tr><td style="font-weight:bold;vertical-align:top;">max-age</td><td style="vertical-align:top;">:</td><td><div></div></td></tr><tr><td style="font-weight:bold;vertical-align:top;">path</td><td style="vertical-align:top;">:</td><td><div></div></td></tr><tr><td style="font-weight:bold;vertical-align:top;">secure</td><td style="vertical-align:top;">:</td><td><div></div></td></tr><tr><td style="font-weight:bold;vertical-align:top;">version</td><td style="vertical-align:top;">:</td><td><div></div></td></tr></table></div></td></tr><tr><td style="font-weight:bold;vertical-align:top;">session_id_welcome</td><td style="vertical-align:top;">:</td><td><div>127.0.0.1-f8f68387-8de8-4c97-89ce-65b2d65eb956<table><tr><td style="font-weight:bold;vertical-align:top;">comment</td><td style="vertical-align:top;">:</td><td><div></div></td></tr><tr><td style="font-weight:bold;vertical-align:top;">domain</td><td style="vertical-align:top;">:</td><td><div></div></td></tr><tr><td style="font-weight:bold;vertical-align:top;">expires</td><td style="vertical-align:top;">:</td><td><div></div></td></tr><tr><td style="font-weight:bold;vertical-align:top;">httponly</td><td style="vertical-align:top;">:</td><td><div></div></td></tr><tr><td style="font-weight:bold;vertical-align:top;">max-age</td><td style="vertical-align:top;">:</td><td><div></div></td></tr><tr><td style="font-weight:bold;vertical-align:top;">path</td><td style="vertical-align:top;">:</td><td><div></div></td></tr><tr><td style="font-weight:bold;vertical-align:top;">secure</td><td style="vertical-align:top;">:</td><td><div></div></td></tr><tr><td style="font-weight:bold;vertical-align:top;">version</td><td style="vertical-align:top;">:</td><td><div></div></td></tr></table></div></td></tr></table></div></td></tr><tr><td style="font-weight:bold;vertical-align:top;">env</td><td style="vertical-align:top;">:</td><td><div><table><tr><td style="font-weight:bold;vertical-align:top;">CONTENT_LENGTH</td><td style="vertical-align:top;">:</td><td><div>967812098</div></td></tr><tr><td style="font-weight:bold;vertical-align:top;">CONTENT_TYPE</td><td style="vertical-align:top;">:</td><td><div>multipart/form-data; boundary=---------------------------1500854160766554498564424606</div></td></tr><tr><td style="font-weight:bold;vertical-align:top;">HTTP_ACCEPT</td><td style="vertical-align:top;">:</td><td><div>text/html,application/xhtml+xml,application/xml;q=0.9,*/*;q=0.8</div></td></tr><tr><td style="font-weight:bold;vertical-align:top;">HTTP_ACCEPT_ENCODING</td><td style="vertical-align:top;">:</td><td><div>gzip, deflate</div></td></tr><tr><td style="font-weight:bold;vertical-align:top;">HTTP_ACCEPT_LANGUAGE</td><td style="vertical-align:top;">:</td><td><div>en-US,en;q=0.5</div></td></tr><tr><td style="font-weight:bold;vertical-align:top;">HTTP_CONNECTION</td><td style="vertical-align:top;">:</td><td><div>keep-alive</div></td></tr><tr><td style="font-weight:bold;vertical-align:top;">HTTP_CONTENT_LENGTH</td><td style="vertical-align:top;">:</td><td><div>967812098</div></td></tr><tr><td style="font-weight:bold;vertical-align:top;">HTTP_CONTENT_TYPE</td><td style="vertical-align:top;">:</td><td><div>multipart/form-data; boundary=---------------------------1500854160766554498564424606</div></td></tr><tr><td style="font-weight:bold;vertical-align:top;">HTTP_COOKIE</td><td style="vertical-align:top;">:</td><td><div>csrftoken=gBhfiujk5WmYVNBqGFOwmpDC98smCiXW; session_id_welcome=127.0.0.1-f8f68387-8de8-4c97-89ce-65b2d65eb956; session_id_admin=127.0.0.1-c6f00af6-52b3-4435-9998-469a73ca6ff6; session_id_itws_project=127.0.0.1-8b03b021-cae6-48da-8a96-550f692ed5a1; session_id_filemanager=127.0.0.1-47e02f32-93f6-4d29-99f0-322a2c80f9d2</div></td></tr><tr><td style="font-weight:bold;vertical-align:top;">HTTP_HOST</td><td style="vertical-align:top;">:</td><td><div>127.0.0.1:8000</div></td></tr><tr><td style="font-weight:bold;vertical-align:top;">HTTP_REFERER</td><td style="vertical-align:top;">:</td><td><div>http://127.0.0.1:8000/ITWS_Project/default/filesystem</div></td></tr><tr><td style="font-weight:bold;vertical-align:top;">HTTP_USER_AGENT</td><td style="vertical-align:top;">:</td><td><div>Mozilla/5.0 (X11; Ubuntu; Linux x86_64; rv:24.0) Gecko/20100101 Firefox/24.0</div></td></tr><tr><td style="font-weight:bold;vertical-align:top;">PATH_INFO</td><td style="vertical-align:top;">:</td><td><div>/ITWS_Project/default/add</div></td></tr><tr><td style="font-weight:bold;vertical-align:top;">QUERY_STRING</td><td style="vertical-align:top;">:</td><td><div></div></td></tr><tr><td style="font-weight:bold;vertical-align:top;">REMOTE_ADDR</td><td style="vertical-align:top;">:</td><td><div>127.0.0.1</div></td></tr><tr><td style="font-weight:bold;vertical-align:top;">REMOTE_PORT</td><td style="vertical-align:top;">:</td><td><div>57941</div></td></tr><tr><td style="font-weight:bold;vertical-align:top;">REQUEST_METHOD</td><td style="vertical-align:top;">:</td><td><div>POST</div></td></tr><tr><td style="font-weight:bold;vertical-align:top;">SCRIPT_NAME</td><td style="vertical-align:top;">:</td><td><div></div></td></tr><tr><td style="font-weight:bold;vertical-align:top;">SERVER_NAME</td><td style="vertical-align:top;">:</td><td><div>vikram-HP-Pavilion-g6-Notebook-PC</div></td></tr><tr><td style="font-weight:bold;vertical-align:top;">SERVER_PORT</td><td style="vertical-align:top;">:</td><td><div>8000</div></td></tr><tr><td style="font-weight:bold;vertical-align:top;">SERVER_PROTOCOL</td><td style="vertical-align:top;">:</td><td><div>HTTP/1.1</div></td></tr><tr><td style="font-weight:bold;vertical-align:top;">SERVER_SOFTWARE</td><td style="vertical-align:top;">:</td><td><div>Rocket 1.2.6</div></td></tr><tr><td style="font-weight:bold;vertical-align:top;">app_folders</td><td style="vertical-align:top;">:</td><td><div>set([&#x27;/home/vikram/web2py/applications/welcome/&#x27;, &#x27;/home/vikram/web2py/applications/admin/&#x27;, &#x27;/home/vikram/web2py/applications/ITWS_Project/&#x27;, &#x27;/home/vikram/web2py/applications/FileManager/&#x27;])</div></td></tr><tr><td style="font-weight:bold;vertical-align:top;">applications_parent</td><td style="vertical-align:top;">:</td><td><div>/home/vikram/web2py</div></td></tr><tr><td style="font-weight:bold;vertical-align:top;">cmd_args</td><td style="vertical-align:top;">:</td><td><div><table></table></div></td></tr><tr><td style="font-weight:bold;vertical-align:top;">cmd_options</td><td style="vertical-align:top;">:</td><td><div>&lt;Values at 0x309fa28: {&#x27;verbose&#x27;: False, &#x27;ip&#x27;: &#x27;127.0.0.1&#x27;, &#x27;debuglevel&#x27;: 30, &#x27;with_scheduler&#x27;: False, &#x27;ips&#x27;: [&#x27;127.0.1.1&#x27;], &#x27;shutdown_timeout&#x27;: 5, &#x27;taskbar&#x27;: False, &#x27;with_coverage&#x27;: False, &#x27;port&#x27;: 8000, &#x27;maxthreads&#x27;: None, &#x27;softcron&#x27;: False, &#x27;server_name&#x27;: &#x27;vikram-HP-Pavilion-g6-Notebook-PC&#x27;, &#x27;bpython&#x27;: False, &#x27;nogui&#x27;: True, &#x27;pid_filename&#x27;: &#x27;httpserver.pid&#x27;, &#x27;extcron&#x27;: False, &#x27;runcron&#x27;: False, &#x27;run_system_tests&#x27;: False, &#x27;test&#x27;: None, &#x27;folder&#x27;: &#x27;/home/vikram/web2py&#x27;, &#x27;config&#x27;: &#x27;&#x27;, &#x27;minthreads&#x27;: None, &#x27;shell&#x27;: None, &#x27;run&#x27;: &#x27;&#x27;, &#x27;log_filename&#x27;: &#x27;httpserver.log&#x27;, &#x27;profiler_dir&#x27;: None, &#x27;args&#x27;: [&#x27;&#x27;], &#x27;socket_timeout&#x27;: 5, &#x27;ssl_ca_certificate&#x27;: None, &#x27;scheduler&#x27;: None, &#x27;interfaces&#x27;: None, &#x27;ssl_private_key&#x27;: &#x27;&#x27;, &#x27;scheduler_groups&#x27;: None, &#x27;password&#x27;: &#x27;1234&#x27;, &#x27;request_queue_size&#x27;: 5, &#x27;ssl_certificate&#x27;: &#x27;&#x27;, &#x27;cronjob&#x27;: False, &#x27;numthreads&#x27;: None, &#x27;quiet&#x27;: False, &#x27;import_models&#x27;: False, &#x27;timeout&#x27;: 10, &#x27;plain&#x27;: False, &#x27;nobanner&#x27;: False}&gt;</div></td></tr><tr><td style="font-weight:bold;vertical-align:top;">content_length</td><td style="vertical-align:top;">:</td><td><div>967812098</div></td></tr><tr><td style="font-weight:bold;vertical-align:top;">content_type</td><td style="vertical-align:top;">:</td><td><div>multipart/form-data; boundary=---------------------------1500854160766554498564424606</div></td></tr><tr><td style="font-weight:bold;vertical-align:top;">db_sessions</td><td style="vertical-align:top;">:</td><td><div>set([])</div></td></tr><tr><td style="font-weight:bold;vertical-align:top;">debugging</td><td style="vertical-align:top;">:</td><td><div>False</div></td></tr><tr><td style="font-weight:bold;vertical-align:top;">gluon_parent</td><td style="vertical-align:top;">:</td><td><div>/home/vikram/web2py</div></td></tr><tr><td style="font-weight:bold;vertical-align:top;">http_accept</td><td style="vertical-align:top;">:</td><td><div>text/html,application/xhtml+xml,application/xml;q=0.9,*/*;q=0.8</div></td></tr><tr><td style="font-weight:bold;vertical-align:top;">http_accept_encoding</td><td style="vertical-align:top;">:</td><td><div>gzip, deflate</div></td></tr><tr><td style="font-weight:bold;vertical-align:top;">http_accept_language</td><td style="vertical-align:top;">:</td><td><div>en-US,en;q=0.5</div></td></tr><tr><td style="font-weight:bold;vertical-align:top;">http_connection</td><td style="vertical-align:top;">:</td><td><div>keep-alive</div></td></tr><tr><td style="font-weight:bold;vertical-align:top;">http_content_length</td><td style="vertical-align:top;">:</td><td><div>967812098</div></td></tr><tr><td style="font-weight:bold;vertical-align:top;">http_content_type</td><td style="vertical-align:top;">:</td><td><div>multipart/form-data; boundary=---------------------------1500854160766554498564424606</div></td></tr><tr><td style="font-weight:bold;vertical-align:top;">http_cookie</td><td style="vertical-align:top;">:</td><td><div>csrftoken=gBhfiujk5WmYVNBqGFOwmpDC98smCiXW; session_id_welcome=127.0.0.1-f8f68387-8de8-4c97-89ce-65b2d65eb956; session_id_admin=127.0.0.1-c6f00af6-52b3-4435-9998-469a73ca6ff6; session_id_itws_project=127.0.0.1-8b03b021-cae6-48da-8a96-550f692ed5a1; session_id_filemanager=127.0.0.1-47e02f32-93f6-4d29-99f0-322a2c80f9d2</div></td></tr><tr><td style="font-weight:bold;vertical-align:top;">http_host</td><td style="vertical-align:top;">:</td><td><div>127.0.0.1:8000</div></td></tr><tr><td style="font-weight:bold;vertical-align:top;">http_referer</td><td style="vertical-align:top;">:</td><td><div>http://127.0.0.1:8000/ITWS_Project/default/filesystem</div></td></tr><tr><td style="font-weight:bold;vertical-align:top;">http_user_agent</td><td style="vertical-align:top;">:</td><td><div>Mozilla/5.0 (X11; Ubuntu; Linux x86_64; rv:24.0) Gecko/20100101 Firefox/24.0</div></td></tr><tr><td style="font-weight:bold;vertical-align:top;">is_jython</td><td style="vertical-align:top;">:</td><td><div>False</div></td></tr><tr><td style="font-weight:bold;vertical-align:top;">is_pypy</td><td style="vertical-align:top;">:</td><td><div>False</div></td></tr><tr><td style="font-weight:bold;vertical-align:top;">is_source</td><td style="vertical-align:top;">:</td><td><div>True</div></td></tr><tr><td style="font-weight:bold;vertical-align:top;">local_hosts</td><td style="vertical-align:top;">:</td><td><div><table><tr><td><div>::1</div></td></tr><tr><td><div>127.0.1.1</div></td></tr><tr><td><div>::ffff:127.0.0.1</div></td></tr><tr><td><div>127.0.0.1</div></td></tr><tr><td><div>vikram-HP-Pavilion-g6-Notebook-PC</div></td></tr></table></div></td></tr><tr><td style="font-weight:bold;vertical-align:top;">path_info</td><td style="vertical-align:top;">:</td><td><div>/ITWS_Project/default/add</div></td></tr><tr><td style="font-weight:bold;vertical-align:top;">query_string</td><td style="vertical-align:top;">:</td><td><div></div></td></tr><tr><td style="font-weight:bold;vertical-align:top;">remote_addr</td><td style="vertical-align:top;">:</td><td><div>127.0.0.1</div></td></tr><tr><td style="font-weight:bold;vertical-align:top;">remote_port</td><td style="vertical-align:top;">:</td><td><div>57941</div></td></tr><tr><td style="font-weight:bold;vertical-align:top;">request_method</td><td style="vertical-align:top;">:</td><td><div>POST</div></td></tr><tr><td style="font-weight:bold;vertical-align:top;">request_uri</td><td style="vertical-align:top;">:</td><td><div>/ITWS_Project/default/add</div></td></tr><tr><td style="font-weight:bold;vertical-align:top;">script_name</td><td style="vertical-align:top;">:</td><td><div></div></td></tr><tr><td style="font-weight:bold;vertical-align:top;">server_name</td><td style="vertical-align:top;">:</td><td><div>vikram-HP-Pavilion-g6-Notebook-PC</div></td></tr><tr><td style="font-weight:bold;vertical-align:top;">server_port</td><td style="vertical-align:top;">:</td><td><div>8000</div></td></tr><tr><td style="font-weight:bold;vertical-align:top;">server_protocol</td><td style="vertical-align:top;">:</td><td><div>HTTP/1.1</div></td></tr><tr><td style="font-weight:bold;vertical-align:top;">server_software</td><td style="vertical-align:top;">:</td><td><div>Rocket 1.2.6</div></td></tr><tr><td style="font-weight:bold;vertical-align:top;">web2py_path</td><td style="vertical-align:top;">:</td><td><div>/home/vikram/web2py</div></td></tr><tr><td style="font-weight:bold;vertical-align:top;">web2py_version</td><td style="vertical-align:top;">:</td><td><div>2.8.2-stable+timestamp.2013.11.28.13.54.07</div></td></tr><tr><td style="font-weight:bold;vertical-align:top;">wsgi.errors</td><td style="vertical-align:top;">:</td><td><div>&lt;open file &#x27;&lt;stderr&gt;&#x27;, mode &#x27;w&#x27; at 0x7f8755b5b1e0&gt;</div></td></tr><tr><td style="font-weight:bold;vertical-align:top;">wsgi.file_wrapper</td><td style="vertical-align:top;">:</td><td><div>&lt;class wsgiref.util.FileWrapper at 0x30b9738&gt;</div></td></tr><tr><td style="font-weight:bold;vertical-align:top;">wsgi.input</td><td style="vertical-align:top;">:</td><td><div>&lt;socket._fileobject object at 0x7f874c72fdd0&gt;</div></td></tr><tr><td style="font-weight:bold;vertical-align:top;">wsgi.multiprocess</td><td style="vertical-align:top;">:</td><td><div>False</div></td></tr><tr><td style="font-weight:bold;vertical-align:top;">wsgi.multithread</td><td style="vertical-align:top;">:</td><td><div>True</div></td></tr><tr><td style="font-weight:bold;vertical-align:top;">wsgi.run_once</td><td style="vertical-align:top;">:</td><td><div>False</div></td></tr><tr><td style="font-weight:bold;vertical-align:top;">wsgi.url_scheme</td><td style="vertical-align:top;">:</td><td><div>http</div></td></tr><tr><td style="font-weight:bold;vertical-align:top;">wsgi.version</td><td style="vertical-align:top;">:</td><td><div><table><tr><td><div>1</div></td></tr><tr><td><div>0</div></td></tr></table></div></td></tr><tr><td style="font-weight:bold;vertical-align:top;">wsgi_errors</td><td style="vertical-align:top;">:</td><td><div>&lt;open file &#x27;&lt;stderr&gt;&#x27;, mode &#x27;w&#x27; at 0x7f8755b5b1e0&gt;</div></td></tr><tr><td style="font-weight:bold;vertical-align:top;">wsgi_file_wrapper</td><td style="vertical-align:top;">:</td><td><div>&lt;class wsgiref.util.FileWrapper at 0x30b9738&gt;</div></td></tr><tr><td style="font-weight:bold;vertical-align:top;">wsgi_input</td><td style="vertical-align:top;">:</td><td><div>&lt;socket._fileobject object at 0x7f874c72fdd0&gt;</div></td></tr><tr><td style="font-weight:bold;vertical-align:top;">wsgi_multiprocess</td><td style="vertical-align:top;">:</td><td><div>False</div></td></tr><tr><td style="font-weight:bold;vertical-align:top;">wsgi_multithread</td><td style="vertical-align:top;">:</td><td><div>True</div></td></tr><tr><td style="font-weight:bold;vertical-align:top;">wsgi_run_once</td><td style="vertical-align:top;">:</td><td><div>False</div></td></tr><tr><td style="font-weight:bold;vertical-align:top;">wsgi_url_scheme</td><td style="vertical-align:top;">:</td><td><div>http</div></td></tr><tr><td style="font-weight:bold;vertical-align:top;">wsgi_version</td><td style="vertical-align:top;">:</td><td><div><table><tr><td><div>1</div></td></tr><tr><td><div>0</div></td></tr></table></div></td></tr></table></div></td></tr><tr><td style="font-weight:bold;vertical-align:top;">extension</td><td style="vertical-align:top;">:</td><td><div>html</div></td></tr><tr><td style="font-weight:bold;vertical-align:top;">folder</td><td style="vertical-align:top;">:</td><td><div>/home/vikram/web2py/applications/ITWS_Project/</div></td></tr><tr><td style="font-weight:bold;vertical-align:top;">function</td><td style="vertical-align:top;">:</td><td><div>add</div></td></tr><tr><td style="font-weight:bold;vertical-align:top;">global_settings</td><td style="vertical-align:top;">:</td><td><div><table><tr><td style="font-weight:bold;vertical-align:top;">app_folders</td><td style="vertical-align:top;">:</td><td><div>set([&#x27;/home/vikram/web2py/applications/welcome/&#x27;, &#x27;/home/vikram/web2py/applications/admin/&#x27;, &#x27;/home/vikram/web2py/applications/ITWS_Project/&#x27;, &#x27;/home/vikram/web2py/applications/FileManager/&#x27;])</div></td></tr><tr><td style="font-weight:bold;vertical-align:top;">applications_parent</td><td style="vertical-align:top;">:</td><td><div>/home/vikram/web2py</div></td></tr><tr><td style="font-weight:bold;vertical-align:top;">cmd_args</td><td style="vertical-align:top;">:</td><td><div><table></table></div></td></tr><tr><td style="font-weight:bold;vertical-align:top;">cmd_options</td><td style="vertical-align:top;">:</td><td><div>&lt;Values at 0x309fa28: {&#x27;verbose&#x27;: False, &#x27;ip&#x27;: &#x27;127.0.0.1&#x27;, &#x27;debuglevel&#x27;: 30, &#x27;with_scheduler&#x27;: False, &#x27;ips&#x27;: [&#x27;127.0.1.1&#x27;], &#x27;shutdown_timeout&#x27;: 5, &#x27;taskbar&#x27;: False, &#x27;with_coverage&#x27;: False, &#x27;port&#x27;: 8000, &#x27;maxthreads&#x27;: None, &#x27;softcron&#x27;: False, &#x27;server_name&#x27;: &#x27;vikram-HP-Pavilion-g6-Notebook-PC&#x27;, &#x27;bpython&#x27;: False, &#x27;nogui&#x27;: True, &#x27;pid_filename&#x27;: &#x27;httpserver.pid&#x27;, &#x27;extcron&#x27;: False, &#x27;runcron&#x27;: False, &#x27;run_system_tests&#x27;: False, &#x27;test&#x27;: None, &#x27;folder&#x27;: &#x27;/home/vikram/web2py&#x27;, &#x27;config&#x27;: &#x27;&#x27;, &#x27;minthreads&#x27;: None, &#x27;shell&#x27;: None, &#x27;run&#x27;: &#x27;&#x27;, &#x27;log_filename&#x27;: &#x27;httpserver.log&#x27;, &#x27;profiler_dir&#x27;: None, &#x27;args&#x27;: [&#x27;&#x27;], &#x27;socket_timeout&#x27;: 5, &#x27;ssl_ca_certificate&#x27;: None, &#x27;scheduler&#x27;: None, &#x27;interfaces&#x27;: None, &#x27;ssl_private_key&#x27;: &#x27;&#x27;, &#x27;scheduler_groups&#x27;: None, &#x27;password&#x27;: &#x27;1234&#x27;, &#x27;request_queue_size&#x27;: 5, &#x27;ssl_certificate&#x27;: &#x27;&#x27;, &#x27;cronjob&#x27;: False, &#x27;numthreads&#x27;: None, &#x27;quiet&#x27;: False, &#x27;import_models&#x27;: False, &#x27;timeout&#x27;: 10, &#x27;plain&#x27;: False, &#x27;nobanner&#x27;: False}&gt;</div></td></tr><tr><td style="font-weight:bold;vertical-align:top;">db_sessions</td><td style="vertical-align:top;">:</td><td><div>set([])</div></td></tr><tr><td style="font-weight:bold;vertical-align:top;">debugging</td><td style="vertical-align:top;">:</td><td><div>False</div></td></tr><tr><td style="font-weight:bold;vertical-align:top;">gluon_parent</td><td style="vertical-align:top;">:</td><td><div>/home/vikram/web2py</div></td></tr><tr><td style="font-weight:bold;vertical-align:top;">is_jython</td><td style="vertical-align:top;">:</td><td><div>False</div></td></tr><tr><td style="font-weight:bold;vertical-align:top;">is_pypy</td><td style="vertical-align:top;">:</td><td><div>False</div></td></tr><tr><td style="font-weight:bold;vertical-align:top;">is_source</td><td style="vertical-align:top;">:</td><td><div>True</div></td></tr><tr><td style="font-weight:bold;vertical-align:top;">local_hosts</td><td style="vertical-align:top;">:</td><td><div><table><tr><td><div>::1</div></td></tr><tr><td><div>127.0.1.1</div></td></tr><tr><td><div>::ffff:127.0.0.1</div></td></tr><tr><td><div>127.0.0.1</div></td></tr><tr><td><div>vikram-HP-Pavilion-g6-Notebook-PC</div></td></tr></table></div></td></tr><tr><td style="font-weight:bold;vertical-align:top;">web2py_version</td><td style="vertical-align:top;">:</td><td><div>2.8.2-stable+timestamp.2013.11.28.13.54.07</div></td></tr></table></div></td></tr><tr><td style="font-weight:bold;vertical-align:top;">is_https</td><td style="vertical-align:top;">:</td><td><div>False</div></td></tr><tr><td style="font-weight:bold;vertical-align:top;">is_local</td><td style="vertical-align:top;">:</td><td><div>True</div></td></tr><tr><td style="font-weight:bold;vertical-align:top;">is_restful</td><td style="vertical-align:top;">:</td><td><div>False</div></td></tr><tr><td style="font-weight:bold;vertical-align:top;">now</td><td style="vertical-align:top;">:</td><td><div>datetime.datetime(2014, 4, 15, 21, 16, 50, 551793)</div></td></tr><tr><td style="font-weight:bold;vertical-align:top;">raw_args</td><td style="vertical-align:top;">:</td><td><div></div></td></tr><tr><td style="font-weight:bold;vertical-align:top;">raw_extension</td><td style="vertical-align:top;">:</td><td><div>None</div></td></tr><tr><td style="font-weight:bold;vertical-align:top;">url</td><td style="vertical-align:top;">:</td><td><div>/ITWS_Project/default/add</div></td></tr><tr><td style="font-weight:bold;vertical-align:top;">utcnow</td><td style="vertical-align:top;">:</td><td><div>datetime.datetime(2014, 4, 15, 15, 46, 50, 551829)</div></td></tr><tr><td style="font-weight:bold;vertical-align:top;">uuid</td><td style="vertical-align:top;">:</td><td><div>ITWS_Project/127.0.0.1.2014-04-15.21-16-50.a2645fce-9746-4035-ac3f-f6968a390576</div></td></tr><tr><td style="font-weight:bold;vertical-align:top;">wsgi</td><td style="vertical-align:top;">:</td><td><div>&lt;gluon.main.LazyWSGI object at 0x7f874c3e38d0&gt;</div></td></tr></table></div>'
tRp70
sS'frames'
p71
(lp72
(dp73
S'file'
p74
S'/home/vikram/web2py/gluon/restricted.py'
p75
sS'dump'
p76
(dp77
S'code'
p78
S"'# -*- coding: utf-8 -*- \\r\\n\\r\\n####################...n pathset\\r\\n\\nresponse._vars=response._caller(add)\\n'"
p79
sS'layer'
p80
S"'/home/vikram/web2py/applications/ITWS_Project/controllers/default.py'"
p81
sS'global compile2'
p82
S'<function compile2>'
p83
sS'ccode'
p84
S'undefined'
p85
ssS'lnum'
p86
I216
sS'lines'
p87
(dp88
I211
S"    environment['__name__'] = '__restricted__'"
p89
sI212
S'    try:'
p90
sI213
S'        if isinstance(code, types.CodeType):'
p91
sI214
S'            ccode = code'
p92
sI215
S'        else:'
p93
sI216
S'            ccode = compile2(code, layer)'
p94
sI217
S'        exec ccode in environment'
p95
sI218
S'    except HTTP:'
p96
sI219
S'        raise'
p97
sI220
S'    except RestrictedError:'
p98
ssS'call'
p99
S"(code='# -*- coding: utf-8 -*- \\r\\n\\r\\n####################...n pathset\\r\\n\\nresponse._vars=response._caller(add)\\n', environment={'A': <class 'gluon.html.A'>, 'ANY_OF': <class 'gluon.validators.ANY_OF'>, 'Auth': <class 'gluon.tools.Auth'>, 'B': <class 'gluon.html.B'>, 'BEAUTIFY': <class 'gluon.html.BEAUTIFY'>, 'BODY': <class 'gluon.html.BODY'>, 'BR': <class 'gluon.html.BR'>, 'BUTTON': <class 'gluon.html.BUTTON'>, 'CAT': <class 'gluon.html.CAT'>, 'CENTER': <class 'gluon.html.CENTER'>, ...}, layer='/home/vikram/web2py/applications/ITWS_Project/controllers/default.py')"
p100
sS'func'
p101
S'restricted'
p102
sa(dp103
g74
S'/home/vikram/web2py/gluon/restricted.py'
p104
sg76
(dp105
S'builtincompile'
p106
S'<built-in function compile>'
p107
sS'code'
p108
S"'# -*- coding: utf-8 -*- \\r\\n\\r\\n####################...n pathset\\r\\n\\nresponse._vars=response._caller(add)\\n'"
p109
sS'code.rstrip'
p110
S'<built-in method rstrip of str object>'
p111
sS').replace'
p112
g85
sS'layer'
p113
S"'/home/vikram/web2py/applications/ITWS_Project/controllers/default.py'"
p114
ssg86
I199
sg87
(dp115
I194
S''
sI195
S'def compile2(code, layer):'
p116
sI196
S'    """'
p117
sI197
S"    The +'\\n' is necessary else compile fails when code ends in a comment."
p118
sI198
S'    """'
p119
sI199
S"    return compile(code.rstrip().replace('\\r\\n', '\\n') + '\\n', layer, 'exec')"
p120
sI200
S''
sI201
S''
sI202
S"def restricted(code, environment=None, layer='Unknown'):"
p121
sI203
S'    """'
p122
ssg99
S"(code='# -*- coding: utf-8 -*- \\r\\n\\r\\n####################...n pathset\\r\\n\\nresponse._vars=response._caller(add)\\n', layer='/home/vikram/web2py/applications/ITWS_Project/controllers/default.py')"
p123
sg101
S'compile2'
p124
sasS'pyver'
p125
S'Python 2.7.5+: /usr/bin/python (prefix: /usr)'
p126
sS'session'
p127
g69
(S's\r\n\x00\x00<div><table><tr><td style="font-weight:bold;vertical-align:top;">auth</td><td style="vertical-align:top;">:</td><td><div><table><tr><td style="font-weight:bold;vertical-align:top;">expiration</td><td style="vertical-align:top;">:</td><td><div>3600</div></td></tr><tr><td style="font-weight:bold;vertical-align:top;">hmac_key</td><td style="vertical-align:top;">:</td><td><div>b558810e-a921-4e9b-9249-519b284f79d7</div></td></tr><tr><td style="font-weight:bold;vertical-align:top;">last_visit</td><td style="vertical-align:top;">:</td><td><div>datetime.datetime(2014, 4, 15, 21, 16, 50, 551793)</div></td></tr><tr><td style="font-weight:bold;vertical-align:top;">remember</td><td style="vertical-align:top;">:</td><td><div>False</div></td></tr><tr><td style="font-weight:bold;vertical-align:top;">user</td><td style="vertical-align:top;">:</td><td><div><table><tr><td style="font-weight:bold;vertical-align:top;">email</td><td style="vertical-align:top;">:</td><td><div>vikramahuja8803@gmail.com</div></td></tr><tr><td style="font-weight:bold;vertical-align:top;">first_name</td><td style="vertical-align:top;">:</td><td><div>vikram</div></td></tr><tr><td style="font-weight:bold;vertical-align:top;">id</td><td style="vertical-align:top;">:</td><td><div>1L</div></td></tr><tr><td style="font-weight:bold;vertical-align:top;">last_name</td><td style="vertical-align:top;">:</td><td><div>ahuja</div></td></tr><tr><td style="font-weight:bold;vertical-align:top;">registration_id</td><td style="vertical-align:top;">:</td><td><div></div></td></tr><tr><td style="font-weight:bold;vertical-align:top;">registration_key</td><td style="vertical-align:top;">:</td><td><div></div></td></tr><tr><td style="font-weight:bold;vertical-align:top;">reset_password_key</td><td style="vertical-align:top;">:</td><td><div></div></td></tr></table></div></td></tr><tr><td style="font-weight:bold;vertical-align:top;">user_groups</td><td style="vertical-align:top;">:</td><td><div><table><tr><td style="font-weight:bold;vertical-align:top;">1</td><td style="vertical-align:top;">:</td><td><div>user_1</div></td></tr></table></div></td></tr></table></div></td></tr><tr><td style="font-weight:bold;vertical-align:top;">flash</td><td style="vertical-align:top;">:</td><td><div>None</div></td></tr><tr><td style="font-weight:bold;vertical-align:top;">last_orderby</td><td style="vertical-align:top;">:</td><td><div>None</div></td></tr><tr><td style="font-weight:bold;vertical-align:top;">last_query</td><td style="vertical-align:top;">:</td><td><div>db.allfiles.id&gt;0</div></td></tr></table></div>'
tRp128
sS'etype'
p129
S"<type 'exceptions.SyntaxError'>"
p130
sS'date'
p131
S'Tue Apr 15 21:16:50 2014'
p132
sS'response'
p133
g69
(S'sV\x1f\x00\x00<div><table><tr><td style="font-weight:bold;vertical-align:top;">body</td><td style="vertical-align:top;">:</td><td><div>&lt;cStringIO.StringO object at 0x7f874c744ea0&gt;</div></td></tr><tr><td style="font-weight:bold;vertical-align:top;">cookies</td><td style="vertical-align:top;">:</td><td><div><table><tr><td style="font-weight:bold;vertical-align:top;">session_id_itws_project</td><td style="vertical-align:top;">:</td><td><div>127.0.0.1-8b03b021-cae6-48da-8a96-550f692ed5a1<table><tr><td style="font-weight:bold;vertical-align:top;">comment</td><td style="vertical-align:top;">:</td><td><div></div></td></tr><tr><td style="font-weight:bold;vertical-align:top;">domain</td><td style="vertical-align:top;">:</td><td><div></div></td></tr><tr><td style="font-weight:bold;vertical-align:top;">expires</td><td style="vertical-align:top;">:</td><td><div></div></td></tr><tr><td style="font-weight:bold;vertical-align:top;">httponly</td><td style="vertical-align:top;">:</td><td><div></div></td></tr><tr><td style="font-weight:bold;vertical-align:top;">max-age</td><td style="vertical-align:top;">:</td><td><div></div></td></tr><tr><td style="font-weight:bold;vertical-align:top;">path</td><td style="vertical-align:top;">:</td><td><div>/</div></td></tr><tr><td style="font-weight:bold;vertical-align:top;">secure</td><td style="vertical-align:top;">:</td><td><div></div></td></tr><tr><td style="font-weight:bold;vertical-align:top;">version</td><td style="vertical-align:top;">:</td><td><div></div></td></tr></table></div></td></tr></table></div></td></tr><tr><td style="font-weight:bold;vertical-align:top;">delimiters</td><td style="vertical-align:top;">:</td><td><div><table><tr><td><div>{{</div></td></tr><tr><td><div>}}</div></td></tr></table></div></td></tr><tr><td style="font-weight:bold;vertical-align:top;">files</td><td style="vertical-align:top;">:</td><td><div><table></table></div></td></tr><tr><td style="font-weight:bold;vertical-align:top;">flash</td><td style="vertical-align:top;">:</td><td><div></div></td></tr><tr><td style="font-weight:bold;vertical-align:top;">generic_patterns</td><td style="vertical-align:top;">:</td><td><div><table></table></div></td></tr><tr><td style="font-weight:bold;vertical-align:top;">headers</td><td style="vertical-align:top;">:</td><td><div><table><tr><td style="font-weight:bold;vertical-align:top;">X-Powered-By</td><td style="vertical-align:top;">:</td><td><div>web2py</div></td></tr></table></div></td></tr><tr><td style="font-weight:bold;vertical-align:top;">menu</td><td style="vertical-align:top;">:</td><td><div><table><tr><td><div><table><tr><td><div>Index</div></td></tr><tr><td><div>False</div></td></tr><tr><td><div>/ITWS_Project/default/index</div></td></tr><tr><td><div><table></table></div></td></tr></table></div></td></tr></table></div></td></tr><tr><td style="font-weight:bold;vertical-align:top;">menu_edit</td><td style="vertical-align:top;">:</td><td><div><table><tr><td><div><table><tr><td><div>Edit</div></td></tr><tr><td><div>False</div></td></tr><tr><td><div>/admin/default/design/ITWS_Project</div></td></tr><tr><td><div><table><tr><td><div><table><tr><td><div>Controller</div></td></tr><tr><td><div>False</div></td></tr><tr><td><div>/admin/default/edit/ITWS_Project/controllers/default.py</div></td></tr></table></div></td></tr><tr><td><div><table><tr><td><div>View</div></td></tr><tr><td><div>False</div></td></tr><tr><td><div>/admin/default/edit/ITWS_Project/views/default/add.html</div></td></tr></table></div></td></tr><tr><td><div><table><tr><td><div>Layout</div></td></tr><tr><td><div>False</div></td></tr><tr><td><div>/admin/default/edit/ITWS_Project/views/layout.html</div></td></tr></table></div></td></tr><tr><td><div><table><tr><td><div>Stylesheet</div></td></tr><tr><td><div>False</div></td></tr><tr><td><div>/admin/default/edit/ITWS_Project/static/base.css</div></td></tr></table></div></td></tr><tr><td><div><table><tr><td><div>DB Model</div></td></tr><tr><td><div>False</div></td></tr><tr><td><div>/admin/default/edit/ITWS_Project/models/db.py</div></td></tr></table></div></td></tr><tr><td><div><table><tr><td><div>Menu Model</div></td></tr><tr><td><div>False</div></td></tr><tr><td><div>/admin/default/edit/ITWS_Project/models/menu.py</div></td></tr></table></div></td></tr><tr><td><div><table><tr><td><div>Database</div></td></tr><tr><td><div>False</div></td></tr><tr><td><div>/ITWS_Project/appadmin/index</div></td></tr></table></div></td></tr></table></div></td></tr></table></div></td></tr></table></div></td></tr><tr><td style="font-weight:bold;vertical-align:top;">meta</td><td style="vertical-align:top;">:</td><td><div><table></table></div></td></tr><tr><td style="font-weight:bold;vertical-align:top;">models_to_run</td><td style="vertical-align:top;">:</td><td><div><table><tr><td><div>^\\w+\\.py$</div></td></tr><tr><td><div>^default/\\w+\\.py$</div></td></tr><tr><td><div>^default/add/\\w+\\.py$</div></td></tr></table></div></td></tr><tr><td style="font-weight:bold;vertical-align:top;">postprocessing</td><td style="vertical-align:top;">:</td><td><div><table></table></div></td></tr><tr><td style="font-weight:bold;vertical-align:top;">session_client</td><td style="vertical-align:top;">:</td><td><div>127.0.0.1</div></td></tr><tr><td style="font-weight:bold;vertical-align:top;">session_cookie_compression_level</td><td style="vertical-align:top;">:</td><td><div>None</div></td></tr><tr><td style="font-weight:bold;vertical-align:top;">session_cookie_expires</td><td style="vertical-align:top;">:</td><td><div>None</div></td></tr><tr><td style="font-weight:bold;vertical-align:top;">session_cookie_key</td><td style="vertical-align:top;">:</td><td><div>None</div></td></tr><tr><td style="font-weight:bold;vertical-align:top;">session_data_name</td><td style="vertical-align:top;">:</td><td><div>session_data_itws_project</div></td></tr><tr><td style="font-weight:bold;vertical-align:top;">session_file</td><td style="vertical-align:top;">:</td><td><div>&lt;open file &#x27;/home/vikram/web2py/applications/ITWS_Project/sessions/127.0.0.1-8b03b021-cae6-48da-8a96-550f692ed5a1&#x27;, mode &#x27;rb+&#x27; at 0x7f87442925d0&gt;</div></td></tr><tr><td style="font-weight:bold;vertical-align:top;">session_filename</td><td style="vertical-align:top;">:</td><td><div>/home/vikram/web2py/applications/ITWS_Project/sessions/127.0.0.1-8b03b021-cae6-48da-8a96-550f692ed5a1</div></td></tr><tr><td style="font-weight:bold;vertical-align:top;">session_hash</td><td style="vertical-align:top;">:</td><td><div>cec64bed1f1323b2527e51685c6a9826</div></td></tr><tr><td style="font-weight:bold;vertical-align:top;">session_id</td><td style="vertical-align:top;">:</td><td><div>127.0.0.1-8b03b021-cae6-48da-8a96-550f692ed5a1</div></td></tr><tr><td style="font-weight:bold;vertical-align:top;">session_id_name</td><td style="vertical-align:top;">:</td><td><div>session_id_itws_project</div></td></tr><tr><td style="font-weight:bold;vertical-align:top;">session_locked</td><td style="vertical-align:top;">:</td><td><div>True</div></td></tr><tr><td style="font-weight:bold;vertical-align:top;">session_masterapp</td><td style="vertical-align:top;">:</td><td><div>ITWS_Project</div></td></tr><tr><td style="font-weight:bold;vertical-align:top;">session_new</td><td style="vertical-align:top;">:</td><td><div>False</div></td></tr><tr><td style="font-weight:bold;vertical-align:top;">session_storage_type</td><td style="vertical-align:top;">:</td><td><div>file</div></td></tr><tr><td style="font-weight:bold;vertical-align:top;">status</td><td style="vertical-align:top;">:</td><td><div>200</div></td></tr><tr><td style="font-weight:bold;vertical-align:top;">subtitle</td><td style="vertical-align:top;">:</td><td><div>customize me!</div></td></tr><tr><td style="font-weight:bold;vertical-align:top;">title</td><td style="vertical-align:top;">:</td><td><div>ITWS_Project</div></td></tr><tr><td style="font-weight:bold;vertical-align:top;">view</td><td style="vertical-align:top;">:</td><td><div>default/add.html</div></td></tr></table></div>'
tRp134
sS'locals'
p135
(dp136
g4
S"'/home/vikram/web2py/applications/ITWS_Project/controllers/default.py'"
p137
sg6
S"'# -*- coding: utf-8 -*- \\r\\n\\r\\n####################...n pathset\\r\\n\\nresponse._vars=response._caller(add)\\n'"
p138
sssS'traceback'
p139
S'Traceback (most recent call last):\n  File "/home/vikram/web2py/gluon/restricted.py", line 216, in restricted\n    ccode = compile2(code, layer)\n  File "/home/vikram/web2py/gluon/restricted.py", line 199, in compile2\n    return compile(code.rstrip().replace(\'\\r\\n\', \'\\n\') + \'\\n\', layer, \'exec\')\n  File "/home/vikram/web2py/applications/ITWS_Project/controllers/default.py", line 85\n    elif filetype=="mp4" or filetype="mkv":\n                                    ^\nSyntaxError: invalid syntax\n'
p140
s.