(dp1
S'output'
p2
S"<type 'exceptions.AttributeError'> 'str' object has no attribute 'filename'"
p3
sS'layer'
p4
S'/home/shantanu/web2py/applications/FileManager/controllers/default.py'
p5
sS'code'
p6
S'# -*- coding: utf-8 -*- \r\n\r\n#########################################################################\r\n## This is a samples controller\r\n## - index is the default action of any application\r\n## - user is required for authentication and authorization\r\n## - download is for downloading files uploaded in the db (does streaming)\r\n## - call exposes all registered services (none by default)\r\n#########################################################################  \r\nfrom __future__ import with_statement # This isn\'t required in Python 2.6     \r\n__metaclass__ = type\r\nimport os\r\nimport sys\r\nimport time\r\ntry:\r\n    from PIL import Image\r\nexcept ImportError:\r\n    raise HTTP(200,"Requires the Python Imaging Library installed")\r\nfrom gluon.contrib import simplejson as json\r\nimport urllib\r\nimport datetime\r\nnow=datetime.datetime.now()\r\nsplit_path = os.path.split\r\nsplit_ext = os.path.splitext\r\npath_exists = os.path.exists\r\nnormalize_path = os.path.normpath\r\nabsolute_path = os.path.abspath \r\nencode_urlpath = urllib.quote_plus\r\noutput=os.path.join(request.folder,\'static\',\'test.txt\')\r\n\r\n\r\n\r\ndef index():\r\n    appname=request.application\r\n    return dict(appname=appname)\r\n    \r\n@service.json\r\ndef getinfo(path):\r\n    if path==\'True\':\r\n        path=request.vars.path\r\n    else:\r\n        path=path\r\n    row=db((db.allfiles.filepath==path)&(db.allfiles.user==me)).select()[0]\r\n    abspath=request.folder+path\r\n    iconfolder=\'static/images/fileicons/\'\r\n    absiconlocation=request.folder+iconfolder\r\n    iconlocation=\'/\'+request.application+\'/\'+iconfolder\r\n    filename=row.filename\r\n    filetype=row.filetype\r\n    datecreated=row.datecreated\r\n    datemodified=row.datemodified\r\n    filesize=row.filesize\r\n    thefile = {\r\n            \'Filename\' : filename,\r\n            \'FileType\' : \'\',\r\n            \'Preview\' : iconlocation+\'_Open.png\' if filetype==\'dir\' else \'\' ,\r\n            \'FilePreview\':\'\',\r\n            \'Path\' : path,\r\n            \'Error\' : \'\',\r\n            \'Code\' : 0,\r\n            \'Properties\' : {\r\n                    \'Date Created\' : \'\',\r\n                    \'Date Modified\' : \'\',\r\n                    \'Width\' : \'\',\r\n                    \'Height\' : \'\',\r\n                    \'Size\' : \'\'\r\n             }\r\n            }\r\n            \r\n    imagetypes = set([\'gif\',\'jpg\',\'jpeg\',\'png\',\'bmp\'])      \r\n        \r\n    if filetype==\'dir\':\r\n        thefile[\'FileType\'] = \'Directory\'\r\n    else:\r\n        thefile[\'FileType\'] = filetype  \r\n        if filetype in imagetypes:\r\n            thefile[\'Preview\']=\'/\'+request.application+\'/default/download/\'+row.file\r\n        elif filetype=="mp3" or filetype=="flv":\r\n            thefile[\'FileType\']=\'media\'\r\n            embedfile=\'/\'+request.application+\'/default/download/\'+row.file          \r\n            thefile[\'FilePreview\']=str(plugin_mediaplayer(embedfile,400,300))\r\n            previewPath = iconlocation + filetype.lower() + \'.png\'\r\n            abspreviewPath=absiconlocation+filetype.lower()+\'.png\'\r\n            thefile[\'Preview\'] = previewPath if os.path.exists(abspreviewPath) else iconlocation+\'default.png\'\r\n        else:\r\n            previewPath = iconlocation + filetype.lower() + \'.png\'\r\n            abspreviewPath=absiconlocation+filetype.lower()+\'.png\'\r\n            thefile[\'Preview\'] = previewPath if os.path.exists(abspreviewPath) else iconlocation+\'default.png\'\r\n        \r\n    thefile[\'Properties\'][\'Date Created\'] = datecreated \r\n    thefile[\'Properties\'][\'Date Modified\'] = datemodified\r\n    thefile[\'Properties\'][\'Size\'] = filesize\r\n    return thefile\r\n     \r\n@service.json   \r\ndef getdata():\r\n    path=request.vars.path\r\n    data=db((db.allfiles.filepath==path)&(db.allfiles.user==me)).select()[0]\r\n    textdata=data.content\r\n    return textdata\r\n\r\ndef updatedata():\r\n    data=request.vars.senddata\r\n    path=request.vars.getpath\r\n    db((db.allfiles.filepath==path)&(db.allfiles.user==me)).update(content=data)\r\n    return \'Updated!!!\'\r\n \r\n@service.json\r\ndef getfolder():   \r\n    path=request.vars.path\r\n    rows=db((db.allfiles.parentpath==path)&(db.allfiles.user==me)).select()    \r\n    result = {}\r\n    for row in rows:\r\n        result[row.filepath]=getinfo(row.filepath)\r\n    return result\r\n\r\ndef browsefiles():\r\n    files=db((db.allfiles.user==me)&(db.allfiles.filetype !=\'dir\')).select()\r\n    result={}\r\n    filetypes= set([\'gif\',\'jpg\',\'png\',\'bmp\',\'swf\'])\r\n    for rfile in files:\r\n        if rfile.filepath[-3:] in filetypes:\r\n            result[rfile.filepath]=getfileinfo(rfile.filepath)\r\n    return dict(result=result,cknum=request.vars.CKEditorFuncNum)\r\n    \r\ndef getfileinfo(path):\r\n    row=db((db.allfiles.filepath==path)&(db.allfiles.user==me)).select()[0]\r\n    abspath=request.folder+path\r\n    iconfolder=\'static/images/fileicons/\'\r\n    absiconlocation=request.folder+iconfolder\r\n    iconlocation=\'/\'+request.application+\'/\'+iconfolder\r\n    filename=row.filename\r\n    filetype=row.filetype\r\n    filesize=row.filesize\r\n    thefile = {\r\n            \'Filename\' : filename,\r\n            \'FileType\' : \'\',\r\n            \'Preview\' : iconlocation+\'_Open.png\' if filetype==\'dir\' else \'\' ,\r\n            \'FilePreview\':\'\',\r\n            \'Path\' : path,\r\n            \'Error\' : \'\',\r\n            \'Code\' : 0,\r\n            \'Properties\' : {\r\n                    \'Width\' : \'\',\r\n                    \'Height\' : \'\',\r\n                    \'Size\' : \'\'\r\n             }\r\n            }\r\n            \r\n    imagetypes = set([\'gif\',\'jpg\',\'jpeg\',\'png\',\'bmp\'])      \r\n        \r\n    if filetype==\'dir\':\r\n        thefile[\'FileType\'] = \'Directory\'\r\n    else:\r\n        thefile[\'FileType\'] = filetype  \r\n        if filetype in imagetypes:\r\n            thefile[\'Preview\']=\'/\'+request.application+\'/default/download/\'+row.file\r\n        elif filetype=="mp3" or filetype=="flv":\r\n            thefile[\'FileType\']=\'media\'\r\n            embedfile=\'/\'+request.application+\'/default/download/\'+row.file          \r\n            thefile[\'FilePreview\']=str(plugin_mediaplayer(embedfile,400,300))\r\n            previewPath = iconlocation + filetype.lower() + \'.png\'\r\n            abspreviewPath=absiconlocation+filetype.lower()+\'.png\'\r\n            thefile[\'Preview\'] = previewPath if os.path.exists(abspreviewPath) else iconlocation+\'default.png\'\r\n        else:\r\n            previewPath = iconlocation + filetype.lower() + \'.png\'\r\n            abspreviewPath=absiconlocation+filetype.lower()+\'.png\'\r\n            thefile[\'Preview\'] = previewPath if os.path.exists(abspreviewPath) else iconlocation+\'default.png\'        \r\n    thefile[\'Properties\'][\'Size\'] = filesize\r\n    return thefile\r\n\r\n\r\ndef dirlist():\r\n   import re\r\n   r=[\'<ul class="jqueryFileTree" style="display: none;">\']\r\n   path=request.post_vars.dir\r\n   rows=db((db.allfiles.parentpath==path)&(db.allfiles.user==me)).select()\r\n   if len(rows)==0 and path==\'/\':\r\n        Directories=[\'Documents\',\'Audios\',\'Videos\',\'Pictures\',\'Other\']\r\n        parentpath=\'/\'\r\n        for directory in Directories:\r\n            filename=directory\r\n            filepath=\'/\'+filename+\'/\'\r\n            db.allfiles.insert(filename=filename,filepath=filepath,parentpath=parentpath,filetype=\'dir\',datecreated=now,user=me)\r\n   rows=db((db.allfiles.parentpath==path)&(db.allfiles.user==me)).select()\r\n   for row in rows:\r\n       if row.filetype==\'dir\':\r\n          r.append(\'<li class="directory collapsed"><a href="#" rel="%s">%s</a></li>\' % (row.filepath,row.filename))    \r\n   r.append(\'</ul>\')\r\n   return r\r\n\r\n@service.json\r\ndef addfolder(param):    \r\n    filename=request.vars.name.replace(\' \',\'_\')\r\n    parentpath=request.vars.path\r\n    filepath=parentpath+filename+\'/\'\r\n    rows=db((db.allfiles.filepath==filepath)&(db.allfiles.user==me)).select()\r\n    recordexists=len(rows)\r\n    if not recordexists:\r\n        db.allfiles.insert(filename=filename,filepath=filepath,parentpath=parentpath,filetype=\'dir\',datecreated=now,user=me)\r\n        result= {\r\n                    \'Parent\' : parentpath,\r\n                    \'Name\' : filename,\r\n                    \'Error\' :\'\',\r\n                    \'Code\' :0\r\n                    }\r\n    else:\r\n        result = {\r\n                    \'Path\' : parentpath,\r\n                    \'Name\' : filename,\r\n                    \'Code\' : 1,\r\n                    \'Error\' : \'Folder already exists\'\r\n                }\r\n    return result\r\n    \r\n@service.json\r\ndef delete(param):\r\n    path=request.vars.path\r\n    #print "<--------------delete---------->"\r\n    #print "path:",path\r\n    filepaths=remove(path,pathset=[])\r\n    for filepath in filepaths:\r\n        if not filepath[-1]==\'/\':\r\n            row=db((db.allfiles.filepath==filepath )&(db.allfiles.user==me)).select()[0]\r\n            filename=row.file\r\n            os.remove(os.path.join(request.folder,\'uploads\',filename))\r\n        db((db.allfiles.filepath==filepath )&(db.allfiles.user==me)).delete()    \r\n    result={\r\n            \'Error\':\'No Error\',\r\n            \'Code\':0,\r\n            \'Path\': path \r\n           }        \r\n    return result\r\n     \r\n@service.json\r\ndef rename(param):\r\n    #print "<---------rename--------->"\r\n    oldpath=request.vars.old  \r\n    #print "oldpath:",oldpath      \r\n    #print "parentpath:",parentpath\r\n    newname = request.vars.new.replace(\' \',\'_\')    \r\n    result={\r\n            \'type\':\'\',\r\n            \'Old Path\':\'\',\r\n            \'New Path\':\'\',\r\n            \'Old Name\':\'\',\r\n            \'New eName\':\'\',\r\n            \'parent\':\'\',\r\n            \'Code\':0,\r\n            \'Error\':\'\'\r\n            } \r\n    if oldpath[-1]==\'/\':\r\n        oldname=split_path(oldpath[:-1])[-1]\r\n        parentpath=split_path(oldpath[:-1])[0]\r\n        if not parentpath==\'/\':\r\n            parentpath=parentpath+\'/\'\r\n        row=db((db.allfiles.parentpath==parentpath)&(db.allfiles.filetype==\'dir\') \\\r\n        &(db.allfiles.filename==newname)&(db.allfiles.user==me)).select()\r\n        if len(row)==1:\r\n            result[\'Code\']=1\r\n            result[\'Error\']=\'Folder already exists\'\r\n            return result\r\n        newpath=parentpath+newname+\'/\'\r\n        result[\'type\']=\'dir\'\r\n        db((db.allfiles.filepath==oldpath)&(db.allfiles.user==me)).update(filepath=newpath,filename=newname,datemodified=now)\r\n        renamedir(oldpath,oldname,newname)\r\n    else:   \r\n        oldname = split_path(oldpath)[-1]\r\n        parentpath = split_path(oldpath)[0]\r\n        if not parentpath==\'/\':\r\n            parentpath=parentpath+\'/\'        \r\n        newpath = parentpath + newname\r\n        row=db((db.allfiles.parentpath==parentpath)&(db.allfiles.filepath==newpath)&(db.allfiles.user==me)).select()\r\n        if len(row)==1:\r\n            result[\'Code\']=1\r\n            result[\'Error\']=\'File already exists\'\r\n            return result\r\n        result[\'type\']=\'file\'\r\n        db((db.allfiles.filepath==oldpath)&(db.allfiles.user==me)).update(filepath=newpath,filename=newname,datemodified=now)\r\n    result[\'parent\']=parentpath\r\n    result[\'Old Path\']= oldpath\r\n    result[\'Old Name\']=oldname\r\n    result[\'New Path\']=newpath\r\n    result[\'New eName\']=newname    \r\n    return result \r\n    \r\ndef renamedir(oldpath,oldname,newname):\r\n    newpath=oldpath.replace(oldname,newname)\r\n    rows=db((db.allfiles.parentpath==oldpath)&(db.allfiles.user==me)).select()\r\n    for row in rows:\r\n        if row.filepath[-1]==\'/\':\r\n            db((db.allfiles.parentpath==oldpath) \\\r\n            &(db.allfiles.user==me)).update(parentpath=row.parentpath.replace(oldname,newname),datemodified=now)\r\n            renamedir(row.filepath,oldname,newname)\r\n            db((db.allfiles.filepath==row.filepath) \\\r\n            &(db.allfiles.user==me)).update(filepath=row.filepath.replace(oldname,newname),datemodified=now)\r\n        else:\r\n            db((db.allfiles.filepath==row.filepath)&(db.allfiles.user==me)). \\\r\n            update(filepath=row.filepath.replace(oldname,newname),parentpath=row.parentpath.replace(oldname,newname),datemodified=now)\r\ndef user():\r\n    """\r\n    exposes:\r\n    http://..../[app]/default/user/login \r\n    http://..../[app]/default/user/logout\r\n    http://..../[app]/default/user/register\r\n    http://..../[app]/default/user/profile\r\n    http://..../[app]/default/user/retrieve_password\r\n    http://..../[app]/default/user/change_password\r\n    use @auth.requires_login()\r\n        @auth.requires_membership(\'group name\')\r\n        @auth.requires_permission(\'read\',\'table name\',record_id)\r\n    to decorate functions that need access control\r\n    """\r\n    return dict(form=auth())\r\n\r\n\r\ndef add():   \r\n    parentpath=request.vars.currentpath\r\n    file=request.vars.file\r\n    filename=file.filename.replace(\' \',\'_\')\r\n    \r\n    filepath=parentpath+filename\r\n    filetype=os.path.splitext(filename)[1][1:]\r\n    row=db((db.allfiles.parentpath==parentpath)&(db.allfiles.filepath==filepath)&(db.allfiles.filename==filename) \\\r\n    &(db.allfiles.user==me)).select()\r\n    if not len(row):    \r\n        db.allfiles.insert(filename=filename,filepath=filepath, \\\r\n            parentpath=parentpath,filetype=filetype,file=db.allfiles.file.store(file.file,filename),datecreated=now,user=me)   \r\n        result = {\r\n                \'Path\' : parentpath,\r\n                \'Name\' : filename,\r\n                \'Error\' :\'\',\r\n                \'Code\':0\r\n            }\r\n    else:\r\n        result = {\r\n                \'Path\' : parentpath,\r\n                \'Name\' : filename,\r\n                \'Error\' : \'File already exists\',\r\n                \'Code\':1\r\n            }\r\n        return \'<textarea>\'+str(result)+\'</textarea>\'\r\n    row=db((db.allfiles.filename==filename)&(db.allfiles.user==me)).select()[0]\r\n    insertedfile=row.file\r\n    outfile=open(output,\'wb\')\r\n    try:\r\n        filepath=os.path.join(request.folder,\'uploads\',insertedfile)\r\n        filesize=os.path.getsize(filepath)\r\n        if filepath[-3:]==\'txt\' or filepath[-4:]==\'html\':\r\n            filepath=os.path.normpath(filepath)\r\n            filein=open(filepath,\'r\')\r\n            dbcontent=filein.read()\r\n            filein.close()\r\n            db((db.allfiles.filename==filename)&(db.allfiles.user==me)).update(filesize=filesize,content=dbcontent)\r\n        else:\r\n            db((db.allfiles.filename==filename)&(db.allfiles.user==me)).update(filesize=filesize)\r\n        outfile.close()        \r\n    except:\r\n        outfile.write(str(sys.exc_info()[1]))\r\n        outfile.close()   \r\n    return \'<textarea>\'+str(result)+\'</textarea>\'\r\n\r\ndef downloadurl():\r\n    """\r\n    allows downloading of uploaded files\r\n    http://..../[app]/default/download/[filename]\r\n    """\r\n    filename=request.vars.filename\r\n    file=db((db.allfiles.filename==filename)&(db.allfiles.user==me)).select()[0]   \r\n    return file.file\r\n\r\ndef download():\r\n    return response.download(request,db)\r\n\r\ndef call():\r\n    """\r\n    exposes services. for example:\r\n    http://..../[app]/default/call/jsonrpc\r\n    decorate with @services.jsonrpc the functions to expose\r\n    supports xml, json, xmlrpc, jsonrpc, amfrpc, rss, csv\r\n    """\r\n    session.forget()\r\n    return service()\r\n\r\n\r\ndef remove(path,pathset):\r\n    if path[-1]==\'/\':\r\n        pathset.append(path)\r\n        rows=db((db.allfiles.parentpath==path)&(db.allfiles.user==me)).select()\r\n        for row in rows:\r\n            if row.filetype==\'dir\':\r\n                remove(row.filepath,pathset=pathset)\r\n            else:\r\n                pathset.append(row.filepath)\r\n    else:\r\n        pathset.append(path)\r\n    return pathset\r\n\nresponse._vars=response._caller(add)\n'
p7
sS'snapshot'
p8
(dp9
S'exception'
p10
(dp11
S'__hash__'
p12
S"<method-wrapper '__hash__' of exceptions.AttributeError object>"
p13
sS'__setattr__'
p14
S"<method-wrapper '__setattr__' of exceptions.AttributeError object>"
p15
sS'__reduce_ex__'
p16
S'<built-in method __reduce_ex__ of exceptions.AttributeError object>'
p17
sS'__getslice__'
p18
S"<method-wrapper '__getslice__' of exceptions.AttributeError object>"
p19
sS'__getitem__'
p20
S"<method-wrapper '__getitem__' of exceptions.AttributeError object>"
p21
sS'__setstate__'
p22
S'<built-in method __setstate__ of exceptions.AttributeError object>'
p23
sS'args'
p24
S'("\'str\' object has no attribute \'filename\'",)'
p25
sS'__reduce__'
p26
S'<built-in method __reduce__ of exceptions.AttributeError object>'
p27
sS'__str__'
p28
S"<method-wrapper '__str__' of exceptions.AttributeError object>"
p29
sS'__format__'
p30
S'<built-in method __format__ of exceptions.AttributeError object>'
p31
sS'__getattribute__'
p32
S"<method-wrapper '__getattribute__' of exceptions.AttributeError object>"
p33
sS'__class__'
p34
S"<type 'exceptions.AttributeError'>"
p35
sS'__unicode__'
p36
S'<built-in method __unicode__ of exceptions.AttributeError object>'
p37
sS'__delattr__'
p38
S"<method-wrapper '__delattr__' of exceptions.AttributeError object>"
p39
sS'__subclasshook__'
p40
S'<built-in method __subclasshook__ of type object>'
p41
sS'__repr__'
p42
S"<method-wrapper '__repr__' of exceptions.AttributeError object>"
p43
sS'__dict__'
p44
S'{}'
p45
sS'__sizeof__'
p46
S'<built-in method __sizeof__ of exceptions.AttributeError object>'
p47
sS'__doc__'
p48
S"'Attribute not found.'"
p49
sS'__init__'
p50
S"<method-wrapper '__init__' of exceptions.AttributeError object>"
p51
sS'__new__'
p52
S'<built-in method __new__ of type object>'
p53
ssS'evalue'
p54
S"'str' object has no attribute 'filename'"
p55
sS'request'
p56
ccopy_reg
_reconstructor
p57
(cgluon.html
BEAUTIFY
p58
c__builtin__
object
p59
NtRp60
(dp61
S'attributes'
p62
(dp63
sS'components'
p64
(lp65
g57
(cgluon.html
TABLE
p66
g59
NtRp67
(dp68
g62
(dp69
S'level'
p70
I5
ssS'parent'
p71
Nsg64
(lp72
g57
(cgluon.html
TR
p73
g59
NtRp74
(dp75
g62
(dp76
sg71
g67
sg64
(lp77
g57
(cgluon.html
TD
p78
g59
NtRp79
(dp80
g62
(dp81
S'_style'
p82
S'font-weight:bold;vertical-align:top'
p83
ssg71
g74
sg64
(lp84
S'ajax'
p85
asbag57
(g78
g59
NtRp86
(dp87
g62
(dp88
S'_valign'
p89
S'top'
p90
ssg71
g74
sg64
(lp91
S':'
asbag57
(g78
g59
NtRp92
(dp93
g62
(dp94
sg71
g74
sg64
(lp95
g57
(g58
g59
NtRp96
(dp97
g62
(dp98
g70
I5
ssg71
g92
sg64
(lp99
S'True'
p100
asbasbasbag57
(g73
g59
NtRp101
(dp102
g62
(dp103
sg71
g67
sg64
(lp104
g57
(g78
g59
NtRp105
(dp106
g62
(dp107
g82
g83
ssg71
g101
sg64
(lp108
S'application'
p109
asbag57
(g78
g59
NtRp110
(dp111
g62
(dp112
g89
g90
ssg71
g101
sg64
(lp113
S':'
asbag57
(g78
g59
NtRp114
(dp115
g62
(dp116
sg71
g101
sg64
(lp117
g57
(g58
g59
NtRp118
(dp119
g62
(dp120
g70
I5
ssg71
g114
sg64
(lp121
S'FileManager'
p122
asbasbasbag57
(g73
g59
NtRp123
(dp124
g62
(dp125
sg71
g67
sg64
(lp126
g57
(g78
g59
NtRp127
(dp128
g62
(dp129
g82
g83
ssg71
g123
sg64
(lp130
g24
asbag57
(g78
g59
NtRp131
(dp132
g62
(dp133
g89
g90
ssg71
g123
sg64
(lp134
S':'
asbag57
(g78
g59
NtRp135
(dp136
g62
(dp137
sg71
g123
sg64
(lp138
g57
(g58
g59
NtRp139
(dp140
g62
(dp141
g70
I5
ssg71
g135
sg64
(lp142
g57
(g66
g59
NtRp143
(dp144
g62
(dp145
g70
I4
ssg71
Nsg64
(lp146
sbasbasbasbag57
(g73
g59
NtRp147
(dp148
g62
(dp149
sg71
g67
sg64
(lp150
g57
(g78
g59
NtRp151
(dp152
g62
(dp153
g82
g83
ssg71
g147
sg64
(lp154
S'body'
p155
asbag57
(g78
g59
NtRp156
(dp157
g62
(dp158
g89
g90
ssg71
g147
sg64
(lp159
S':'
asbag57
(g78
g59
NtRp160
(dp161
g62
(dp162
sg71
g147
sg64
(lp163
g57
(g58
g59
NtRp164
(dp165
g62
(dp166
g70
I5
ssg71
g160
sg64
(lp167
S"<open file '<fdopen>', mode 'w+b' at 0x7f22380325d0>"
p168
asbasbasbag57
(g73
g59
NtRp169
(dp170
g62
(dp171
sg71
g67
sg64
(lp172
g57
(g78
g59
NtRp173
(dp174
g62
(dp175
g82
g83
ssg71
g169
sg64
(lp176
S'client'
p177
asbag57
(g78
g59
NtRp178
(dp179
g62
(dp180
g89
g90
ssg71
g169
sg64
(lp181
S':'
asbag57
(g78
g59
NtRp182
(dp183
g62
(dp184
sg71
g169
sg64
(lp185
g57
(g58
g59
NtRp186
(dp187
g62
(dp188
g70
I5
ssg71
g182
sg64
(lp189
S'127.0.0.1'
p190
asbasbasbag57
(g73
g59
NtRp191
(dp192
g62
(dp193
sg71
g67
sg64
(lp194
g57
(g78
g59
NtRp195
(dp196
g62
(dp197
g82
g83
ssg71
g191
sg64
(lp198
S'controller'
p199
asbag57
(g78
g59
NtRp200
(dp201
g62
(dp202
g89
g90
ssg71
g191
sg64
(lp203
S':'
asbag57
(g78
g59
NtRp204
(dp205
g62
(dp206
sg71
g191
sg64
(lp207
g57
(g58
g59
NtRp208
(dp209
g62
(dp210
g70
I5
ssg71
g204
sg64
(lp211
S'default'
p212
asbasbasbag57
(g73
g59
NtRp213
(dp214
g62
(dp215
sg71
g67
sg64
(lp216
g57
(g78
g59
NtRp217
(dp218
g62
(dp219
g82
g83
ssg71
g213
sg64
(lp220
S'cookies'
p221
asbag57
(g78
g59
NtRp222
(dp223
g62
(dp224
g89
g90
ssg71
g213
sg64
(lp225
S':'
asbag57
(g78
g59
NtRp226
(dp227
g62
(dp228
sg71
g213
sg64
(lp229
g57
(g58
g59
NtRp230
(dp231
g62
(dp232
g70
I5
ssg71
g226
sg64
(lp233
g57
(g66
g59
NtRp234
(dp235
g62
(dp236
g70
I4
ssg71
Nsg64
(lp237
g57
(g73
g59
NtRp238
(dp239
g62
(dp240
sg71
g234
sg64
(lp241
g57
(g78
g59
NtRp242
(dp243
g62
(dp244
g82
g83
ssg71
g238
sg64
(lp245
S'session_id_admin'
p246
asbag57
(g78
g59
NtRp247
(dp248
g62
(dp249
g89
g90
ssg71
g238
sg64
(lp250
S':'
asbag57
(g78
g59
NtRp251
(dp252
g62
(dp253
sg71
g238
sg64
(lp254
g57
(g58
g59
NtRp255
(dp256
g62
(dp257
g70
I4
ssg71
g251
sg64
(lp258
g57
(g66
g59
NtRp259
(dp260
g62
(dp261
g70
I3
ssg71
Nsg64
(lp262
g57
(g73
g59
NtRp263
(dp264
g62
(dp265
sg71
g259
sg64
(lp266
g57
(g78
g59
NtRp267
(dp268
g62
(dp269
g82
g83
ssg71
g263
sg64
(lp270
S'comment'
p271
asbag57
(g78
g59
NtRp272
(dp273
g62
(dp274
g89
g90
ssg71
g263
sg64
(lp275
S':'
asbag57
(g78
g59
NtRp276
(dp277
g62
(dp278
sg71
g263
sg64
(lp279
g57
(g58
g59
NtRp280
(dp281
g62
(dp282
g70
I3
ssg71
g276
sg64
(lp283
S''
asbasbasbag57
(g73
g59
NtRp284
(dp285
g62
(dp286
sg71
g259
sg64
(lp287
g57
(g78
g59
NtRp288
(dp289
g62
(dp290
g82
g83
ssg71
g284
sg64
(lp291
S'domain'
p292
asbag57
(g78
g59
NtRp293
(dp294
g62
(dp295
g89
g90
ssg71
g284
sg64
(lp296
S':'
asbag57
(g78
g59
NtRp297
(dp298
g62
(dp299
sg71
g284
sg64
(lp300
g57
(g58
g59
NtRp301
(dp302
g62
(dp303
g70
I3
ssg71
g297
sg64
(lp304
S''
asbasbasbag57
(g73
g59
NtRp305
(dp306
g62
(dp307
sg71
g259
sg64
(lp308
g57
(g78
g59
NtRp309
(dp310
g62
(dp311
g82
g83
ssg71
g305
sg64
(lp312
S'expires'
p313
asbag57
(g78
g59
NtRp314
(dp315
g62
(dp316
g89
g90
ssg71
g305
sg64
(lp317
S':'
asbag57
(g78
g59
NtRp318
(dp319
g62
(dp320
sg71
g305
sg64
(lp321
g57
(g58
g59
NtRp322
(dp323
g62
(dp324
g70
I3
ssg71
g318
sg64
(lp325
S''
asbasbasbag57
(g73
g59
NtRp326
(dp327
g62
(dp328
sg71
g259
sg64
(lp329
g57
(g78
g59
NtRp330
(dp331
g62
(dp332
g82
g83
ssg71
g326
sg64
(lp333
S'httponly'
p334
asbag57
(g78
g59
NtRp335
(dp336
g62
(dp337
g89
g90
ssg71
g326
sg64
(lp338
S':'
asbag57
(g78
g59
NtRp339
(dp340
g62
(dp341
sg71
g326
sg64
(lp342
g57
(g58
g59
NtRp343
(dp344
g62
(dp345
g70
I3
ssg71
g339
sg64
(lp346
S''
asbasbasbag57
(g73
g59
NtRp347
(dp348
g62
(dp349
sg71
g259
sg64
(lp350
g57
(g78
g59
NtRp351
(dp352
g62
(dp353
g82
g83
ssg71
g347
sg64
(lp354
S'max-age'
p355
asbag57
(g78
g59
NtRp356
(dp357
g62
(dp358
g89
g90
ssg71
g347
sg64
(lp359
S':'
asbag57
(g78
g59
NtRp360
(dp361
g62
(dp362
sg71
g347
sg64
(lp363
g57
(g58
g59
NtRp364
(dp365
g62
(dp366
g70
I3
ssg71
g360
sg64
(lp367
S''
asbasbasbag57
(g73
g59
NtRp368
(dp369
g62
(dp370
sg71
g259
sg64
(lp371
g57
(g78
g59
NtRp372
(dp373
g62
(dp374
g82
g83
ssg71
g368
sg64
(lp375
S'path'
p376
asbag57
(g78
g59
NtRp377
(dp378
g62
(dp379
g89
g90
ssg71
g368
sg64
(lp380
S':'
asbag57
(g78
g59
NtRp381
(dp382
g62
(dp383
sg71
g368
sg64
(lp384
g57
(g58
g59
NtRp385
(dp386
g62
(dp387
g70
I3
ssg71
g381
sg64
(lp388
S''
asbasbasbag57
(g73
g59
NtRp389
(dp390
g62
(dp391
sg71
g259
sg64
(lp392
g57
(g78
g59
NtRp393
(dp394
g62
(dp395
g82
g83
ssg71
g389
sg64
(lp396
S'secure'
p397
asbag57
(g78
g59
NtRp398
(dp399
g62
(dp400
g89
g90
ssg71
g389
sg64
(lp401
S':'
asbag57
(g78
g59
NtRp402
(dp403
g62
(dp404
sg71
g389
sg64
(lp405
g57
(g58
g59
NtRp406
(dp407
g62
(dp408
g70
I3
ssg71
g402
sg64
(lp409
S''
asbasbasbag57
(g73
g59
NtRp410
(dp411
g62
(dp412
sg71
g259
sg64
(lp413
g57
(g78
g59
NtRp414
(dp415
g62
(dp416
g82
g83
ssg71
g410
sg64
(lp417
S'version'
p418
asbag57
(g78
g59
NtRp419
(dp420
g62
(dp421
g89
g90
ssg71
g410
sg64
(lp422
S':'
asbag57
(g78
g59
NtRp423
(dp424
g62
(dp425
sg71
g410
sg64
(lp426
g57
(g58
g59
NtRp427
(dp428
g62
(dp429
g70
I3
ssg71
g423
sg64
(lp430
S''
asbasbasbasbasbasbasbag57
(g73
g59
NtRp431
(dp432
g62
(dp433
sg71
g234
sg64
(lp434
g57
(g78
g59
NtRp435
(dp436
g62
(dp437
g82
g83
ssg71
g431
sg64
(lp438
S'session_id_ajaxspreadsheet'
p439
asbag57
(g78
g59
NtRp440
(dp441
g62
(dp442
g89
g90
ssg71
g431
sg64
(lp443
S':'
asbag57
(g78
g59
NtRp444
(dp445
g62
(dp446
sg71
g431
sg64
(lp447
g57
(g58
g59
NtRp448
(dp449
g62
(dp450
g70
I4
ssg71
g444
sg64
(lp451
g57
(g66
g59
NtRp452
(dp453
g62
(dp454
g70
I3
ssg71
Nsg64
(lp455
g57
(g73
g59
NtRp456
(dp457
g62
(dp458
sg71
g452
sg64
(lp459
g57
(g78
g59
NtRp460
(dp461
g62
(dp462
g82
g83
ssg71
g456
sg64
(lp463
g271
asbag57
(g78
g59
NtRp464
(dp465
g62
(dp466
g89
g90
ssg71
g456
sg64
(lp467
S':'
asbag57
(g78
g59
NtRp468
(dp469
g62
(dp470
sg71
g456
sg64
(lp471
g57
(g58
g59
NtRp472
(dp473
g62
(dp474
g70
I3
ssg71
g468
sg64
(lp475
S''
asbasbasbag57
(g73
g59
NtRp476
(dp477
g62
(dp478
sg71
g452
sg64
(lp479
g57
(g78
g59
NtRp480
(dp481
g62
(dp482
g82
g83
ssg71
g476
sg64
(lp483
g292
asbag57
(g78
g59
NtRp484
(dp485
g62
(dp486
g89
g90
ssg71
g476
sg64
(lp487
S':'
asbag57
(g78
g59
NtRp488
(dp489
g62
(dp490
sg71
g476
sg64
(lp491
g57
(g58
g59
NtRp492
(dp493
g62
(dp494
g70
I3
ssg71
g488
sg64
(lp495
S''
asbasbasbag57
(g73
g59
NtRp496
(dp497
g62
(dp498
sg71
g452
sg64
(lp499
g57
(g78
g59
NtRp500
(dp501
g62
(dp502
g82
g83
ssg71
g496
sg64
(lp503
g313
asbag57
(g78
g59
NtRp504
(dp505
g62
(dp506
g89
g90
ssg71
g496
sg64
(lp507
S':'
asbag57
(g78
g59
NtRp508
(dp509
g62
(dp510
sg71
g496
sg64
(lp511
g57
(g58
g59
NtRp512
(dp513
g62
(dp514
g70
I3
ssg71
g508
sg64
(lp515
S''
asbasbasbag57
(g73
g59
NtRp516
(dp517
g62
(dp518
sg71
g452
sg64
(lp519
g57
(g78
g59
NtRp520
(dp521
g62
(dp522
g82
g83
ssg71
g516
sg64
(lp523
g334
asbag57
(g78
g59
NtRp524
(dp525
g62
(dp526
g89
g90
ssg71
g516
sg64
(lp527
S':'
asbag57
(g78
g59
NtRp528
(dp529
g62
(dp530
sg71
g516
sg64
(lp531
g57
(g58
g59
NtRp532
(dp533
g62
(dp534
g70
I3
ssg71
g528
sg64
(lp535
S''
asbasbasbag57
(g73
g59
NtRp536
(dp537
g62
(dp538
sg71
g452
sg64
(lp539
g57
(g78
g59
NtRp540
(dp541
g62
(dp542
g82
g83
ssg71
g536
sg64
(lp543
g355
asbag57
(g78
g59
NtRp544
(dp545
g62
(dp546
g89
g90
ssg71
g536
sg64
(lp547
S':'
asbag57
(g78
g59
NtRp548
(dp549
g62
(dp550
sg71
g536
sg64
(lp551
g57
(g58
g59
NtRp552
(dp553
g62
(dp554
g70
I3
ssg71
g548
sg64
(lp555
S''
asbasbasbag57
(g73
g59
NtRp556
(dp557
g62
(dp558
sg71
g452
sg64
(lp559
g57
(g78
g59
NtRp560
(dp561
g62
(dp562
g82
g83
ssg71
g556
sg64
(lp563
g376
asbag57
(g78
g59
NtRp564
(dp565
g62
(dp566
g89
g90
ssg71
g556
sg64
(lp567
S':'
asbag57
(g78
g59
NtRp568
(dp569
g62
(dp570
sg71
g556
sg64
(lp571
g57
(g58
g59
NtRp572
(dp573
g62
(dp574
g70
I3
ssg71
g568
sg64
(lp575
S''
asbasbasbag57
(g73
g59
NtRp576
(dp577
g62
(dp578
sg71
g452
sg64
(lp579
g57
(g78
g59
NtRp580
(dp581
g62
(dp582
g82
g83
ssg71
g576
sg64
(lp583
g397
asbag57
(g78
g59
NtRp584
(dp585
g62
(dp586
g89
g90
ssg71
g576
sg64
(lp587
S':'
asbag57
(g78
g59
NtRp588
(dp589
g62
(dp590
sg71
g576
sg64
(lp591
g57
(g58
g59
NtRp592
(dp593
g62
(dp594
g70
I3
ssg71
g588
sg64
(lp595
S''
asbasbasbag57
(g73
g59
NtRp596
(dp597
g62
(dp598
sg71
g452
sg64
(lp599
g57
(g78
g59
NtRp600
(dp601
g62
(dp602
g82
g83
ssg71
g596
sg64
(lp603
g418
asbag57
(g78
g59
NtRp604
(dp605
g62
(dp606
g89
g90
ssg71
g596
sg64
(lp607
S':'
asbag57
(g78
g59
NtRp608
(dp609
g62
(dp610
sg71
g596
sg64
(lp611
g57
(g58
g59
NtRp612
(dp613
g62
(dp614
g70
I3
ssg71
g608
sg64
(lp615
S''
asbasbasbasbasbasbasbag57
(g73
g59
NtRp616
(dp617
g62
(dp618
sg71
g234
sg64
(lp619
g57
(g78
g59
NtRp620
(dp621
g62
(dp622
g82
g83
ssg71
g616
sg64
(lp623
S'session_id_appliances'
p624
asbag57
(g78
g59
NtRp625
(dp626
g62
(dp627
g89
g90
ssg71
g616
sg64
(lp628
S':'
asbag57
(g78
g59
NtRp629
(dp630
g62
(dp631
sg71
g616
sg64
(lp632
g57
(g58
g59
NtRp633
(dp634
g62
(dp635
g70
I4
ssg71
g629
sg64
(lp636
g57
(g66
g59
NtRp637
(dp638
g62
(dp639
g70
I3
ssg71
Nsg64
(lp640
g57
(g73
g59
NtRp641
(dp642
g62
(dp643
sg71
g637
sg64
(lp644
g57
(g78
g59
NtRp645
(dp646
g62
(dp647
g82
g83
ssg71
g641
sg64
(lp648
g271
asbag57
(g78
g59
NtRp649
(dp650
g62
(dp651
g89
g90
ssg71
g641
sg64
(lp652
S':'
asbag57
(g78
g59
NtRp653
(dp654
g62
(dp655
sg71
g641
sg64
(lp656
g57
(g58
g59
NtRp657
(dp658
g62
(dp659
g70
I3
ssg71
g653
sg64
(lp660
S''
asbasbasbag57
(g73
g59
NtRp661
(dp662
g62
(dp663
sg71
g637
sg64
(lp664
g57
(g78
g59
NtRp665
(dp666
g62
(dp667
g82
g83
ssg71
g661
sg64
(lp668
g292
asbag57
(g78
g59
NtRp669
(dp670
g62
(dp671
g89
g90
ssg71
g661
sg64
(lp672
S':'
asbag57
(g78
g59
NtRp673
(dp674
g62
(dp675
sg71
g661
sg64
(lp676
g57
(g58
g59
NtRp677
(dp678
g62
(dp679
g70
I3
ssg71
g673
sg64
(lp680
S''
asbasbasbag57
(g73
g59
NtRp681
(dp682
g62
(dp683
sg71
g637
sg64
(lp684
g57
(g78
g59
NtRp685
(dp686
g62
(dp687
g82
g83
ssg71
g681
sg64
(lp688
g313
asbag57
(g78
g59
NtRp689
(dp690
g62
(dp691
g89
g90
ssg71
g681
sg64
(lp692
S':'
asbag57
(g78
g59
NtRp693
(dp694
g62
(dp695
sg71
g681
sg64
(lp696
g57
(g58
g59
NtRp697
(dp698
g62
(dp699
g70
I3
ssg71
g693
sg64
(lp700
S''
asbasbasbag57
(g73
g59
NtRp701
(dp702
g62
(dp703
sg71
g637
sg64
(lp704
g57
(g78
g59
NtRp705
(dp706
g62
(dp707
g82
g83
ssg71
g701
sg64
(lp708
g334
asbag57
(g78
g59
NtRp709
(dp710
g62
(dp711
g89
g90
ssg71
g701
sg64
(lp712
S':'
asbag57
(g78
g59
NtRp713
(dp714
g62
(dp715
sg71
g701
sg64
(lp716
g57
(g58
g59
NtRp717
(dp718
g62
(dp719
g70
I3
ssg71
g713
sg64
(lp720
S''
asbasbasbag57
(g73
g59
NtRp721
(dp722
g62
(dp723
sg71
g637
sg64
(lp724
g57
(g78
g59
NtRp725
(dp726
g62
(dp727
g82
g83
ssg71
g721
sg64
(lp728
g355
asbag57
(g78
g59
NtRp729
(dp730
g62
(dp731
g89
g90
ssg71
g721
sg64
(lp732
S':'
asbag57
(g78
g59
NtRp733
(dp734
g62
(dp735
sg71
g721
sg64
(lp736
g57
(g58
g59
NtRp737
(dp738
g62
(dp739
g70
I3
ssg71
g733
sg64
(lp740
S''
asbasbasbag57
(g73
g59
NtRp741
(dp742
g62
(dp743
sg71
g637
sg64
(lp744
g57
(g78
g59
NtRp745
(dp746
g62
(dp747
g82
g83
ssg71
g741
sg64
(lp748
g376
asbag57
(g78
g59
NtRp749
(dp750
g62
(dp751
g89
g90
ssg71
g741
sg64
(lp752
S':'
asbag57
(g78
g59
NtRp753
(dp754
g62
(dp755
sg71
g741
sg64
(lp756
g57
(g58
g59
NtRp757
(dp758
g62
(dp759
g70
I3
ssg71
g753
sg64
(lp760
S''
asbasbasbag57
(g73
g59
NtRp761
(dp762
g62
(dp763
sg71
g637
sg64
(lp764
g57
(g78
g59
NtRp765
(dp766
g62
(dp767
g82
g83
ssg71
g761
sg64
(lp768
g397
asbag57
(g78
g59
NtRp769
(dp770
g62
(dp771
g89
g90
ssg71
g761
sg64
(lp772
S':'
asbag57
(g78
g59
NtRp773
(dp774
g62
(dp775
sg71
g761
sg64
(lp776
g57
(g58
g59
NtRp777
(dp778
g62
(dp779
g70
I3
ssg71
g773
sg64
(lp780
S''
asbasbasbag57
(g73
g59
NtRp781
(dp782
g62
(dp783
sg71
g637
sg64
(lp784
g57
(g78
g59
NtRp785
(dp786
g62
(dp787
g82
g83
ssg71
g781
sg64
(lp788
g418
asbag57
(g78
g59
NtRp789
(dp790
g62
(dp791
g89
g90
ssg71
g781
sg64
(lp792
S':'
asbag57
(g78
g59
NtRp793
(dp794
g62
(dp795
sg71
g781
sg64
(lp796
g57
(g58
g59
NtRp797
(dp798
g62
(dp799
g70
I3
ssg71
g793
sg64
(lp800
S''
asbasbasbasbasbasbasbag57
(g73
g59
NtRp801
(dp802
g62
(dp803
sg71
g234
sg64
(lp804
g57
(g78
g59
NtRp805
(dp806
g62
(dp807
g82
g83
ssg71
g801
sg64
(lp808
S'session_id_bingapi'
p809
asbag57
(g78
g59
NtRp810
(dp811
g62
(dp812
g89
g90
ssg71
g801
sg64
(lp813
S':'
asbag57
(g78
g59
NtRp814
(dp815
g62
(dp816
sg71
g801
sg64
(lp817
g57
(g58
g59
NtRp818
(dp819
g62
(dp820
g70
I4
ssg71
g814
sg64
(lp821
g57
(g66
g59
NtRp822
(dp823
g62
(dp824
g70
I3
ssg71
Nsg64
(lp825
g57
(g73
g59
NtRp826
(dp827
g62
(dp828
sg71
g822
sg64
(lp829
g57
(g78
g59
NtRp830
(dp831
g62
(dp832
g82
g83
ssg71
g826
sg64
(lp833
g271
asbag57
(g78
g59
NtRp834
(dp835
g62
(dp836
g89
g90
ssg71
g826
sg64
(lp837
S':'
asbag57
(g78
g59
NtRp838
(dp839
g62
(dp840
sg71
g826
sg64
(lp841
g57
(g58
g59
NtRp842
(dp843
g62
(dp844
g70
I3
ssg71
g838
sg64
(lp845
S''
asbasbasbag57
(g73
g59
NtRp846
(dp847
g62
(dp848
sg71
g822
sg64
(lp849
g57
(g78
g59
NtRp850
(dp851
g62
(dp852
g82
g83
ssg71
g846
sg64
(lp853
g292
asbag57
(g78
g59
NtRp854
(dp855
g62
(dp856
g89
g90
ssg71
g846
sg64
(lp857
S':'
asbag57
(g78
g59
NtRp858
(dp859
g62
(dp860
sg71
g846
sg64
(lp861
g57
(g58
g59
NtRp862
(dp863
g62
(dp864
g70
I3
ssg71
g858
sg64
(lp865
S''
asbasbasbag57
(g73
g59
NtRp866
(dp867
g62
(dp868
sg71
g822
sg64
(lp869
g57
(g78
g59
NtRp870
(dp871
g62
(dp872
g82
g83
ssg71
g866
sg64
(lp873
g313
asbag57
(g78
g59
NtRp874
(dp875
g62
(dp876
g89
g90
ssg71
g866
sg64
(lp877
S':'
asbag57
(g78
g59
NtRp878
(dp879
g62
(dp880
sg71
g866
sg64
(lp881
g57
(g58
g59
NtRp882
(dp883
g62
(dp884
g70
I3
ssg71
g878
sg64
(lp885
S''
asbasbasbag57
(g73
g59
NtRp886
(dp887
g62
(dp888
sg71
g822
sg64
(lp889
g57
(g78
g59
NtRp890
(dp891
g62
(dp892
g82
g83
ssg71
g886
sg64
(lp893
g334
asbag57
(g78
g59
NtRp894
(dp895
g62
(dp896
g89
g90
ssg71
g886
sg64
(lp897
S':'
asbag57
(g78
g59
NtRp898
(dp899
g62
(dp900
sg71
g886
sg64
(lp901
g57
(g58
g59
NtRp902
(dp903
g62
(dp904
g70
I3
ssg71
g898
sg64
(lp905
S''
asbasbasbag57
(g73
g59
NtRp906
(dp907
g62
(dp908
sg71
g822
sg64
(lp909
g57
(g78
g59
NtRp910
(dp911
g62
(dp912
g82
g83
ssg71
g906
sg64
(lp913
g355
asbag57
(g78
g59
NtRp914
(dp915
g62
(dp916
g89
g90
ssg71
g906
sg64
(lp917
S':'
asbag57
(g78
g59
NtRp918
(dp919
g62
(dp920
sg71
g906
sg64
(lp921
g57
(g58
g59
NtRp922
(dp923
g62
(dp924
g70
I3
ssg71
g918
sg64
(lp925
S''
asbasbasbag57
(g73
g59
NtRp926
(dp927
g62
(dp928
sg71
g822
sg64
(lp929
g57
(g78
g59
NtRp930
(dp931
g62
(dp932
g82
g83
ssg71
g926
sg64
(lp933
g376
asbag57
(g78
g59
NtRp934
(dp935
g62
(dp936
g89
g90
ssg71
g926
sg64
(lp937
S':'
asbag57
(g78
g59
NtRp938
(dp939
g62
(dp940
sg71
g926
sg64
(lp941
g57
(g58
g59
NtRp942
(dp943
g62
(dp944
g70
I3
ssg71
g938
sg64
(lp945
S''
asbasbasbag57
(g73
g59
NtRp946
(dp947
g62
(dp948
sg71
g822
sg64
(lp949
g57
(g78
g59
NtRp950
(dp951
g62
(dp952
g82
g83
ssg71
g946
sg64
(lp953
g397
asbag57
(g78
g59
NtRp954
(dp955
g62
(dp956
g89
g90
ssg71
g946
sg64
(lp957
S':'
asbag57
(g78
g59
NtRp958
(dp959
g62
(dp960
sg71
g946
sg64
(lp961
g57
(g58
g59
NtRp962
(dp963
g62
(dp964
g70
I3
ssg71
g958
sg64
(lp965
S''
asbasbasbag57
(g73
g59
NtRp966
(dp967
g62
(dp968
sg71
g822
sg64
(lp969
g57
(g78
g59
NtRp970
(dp971
g62
(dp972
g82
g83
ssg71
g966
sg64
(lp973
g418
asbag57
(g78
g59
NtRp974
(dp975
g62
(dp976
g89
g90
ssg71
g966
sg64
(lp977
S':'
asbag57
(g78
g59
NtRp978
(dp979
g62
(dp980
sg71
g966
sg64
(lp981
g57
(g58
g59
NtRp982
(dp983
g62
(dp984
g70
I3
ssg71
g978
sg64
(lp985
S''
asbasbasbasbasbasbasbag57
(g73
g59
NtRp986
(dp987
g62
(dp988
sg71
g234
sg64
(lp989
g57
(g78
g59
NtRp990
(dp991
g62
(dp992
g82
g83
ssg71
g986
sg64
(lp993
S'session_id_bitcoinexample'
p994
asbag57
(g78
g59
NtRp995
(dp996
g62
(dp997
g89
g90
ssg71
g986
sg64
(lp998
S':'
asbag57
(g78
g59
NtRp999
(dp1000
g62
(dp1001
sg71
g986
sg64
(lp1002
g57
(g58
g59
NtRp1003
(dp1004
g62
(dp1005
g70
I4
ssg71
g999
sg64
(lp1006
g57
(g66
g59
NtRp1007
(dp1008
g62
(dp1009
g70
I3
ssg71
Nsg64
(lp1010
g57
(g73
g59
NtRp1011
(dp1012
g62
(dp1013
sg71
g1007
sg64
(lp1014
g57
(g78
g59
NtRp1015
(dp1016
g62
(dp1017
g82
g83
ssg71
g1011
sg64
(lp1018
g271
asbag57
(g78
g59
NtRp1019
(dp1020
g62
(dp1021
g89
g90
ssg71
g1011
sg64
(lp1022
S':'
asbag57
(g78
g59
NtRp1023
(dp1024
g62
(dp1025
sg71
g1011
sg64
(lp1026
g57
(g58
g59
NtRp1027
(dp1028
g62
(dp1029
g70
I3
ssg71
g1023
sg64
(lp1030
S''
asbasbasbag57
(g73
g59
NtRp1031
(dp1032
g62
(dp1033
sg71
g1007
sg64
(lp1034
g57
(g78
g59
NtRp1035
(dp1036
g62
(dp1037
g82
g83
ssg71
g1031
sg64
(lp1038
g292
asbag57
(g78
g59
NtRp1039
(dp1040
g62
(dp1041
g89
g90
ssg71
g1031
sg64
(lp1042
S':'
asbag57
(g78
g59
NtRp1043
(dp1044
g62
(dp1045
sg71
g1031
sg64
(lp1046
g57
(g58
g59
NtRp1047
(dp1048
g62
(dp1049
g70
I3
ssg71
g1043
sg64
(lp1050
S''
asbasbasbag57
(g73
g59
NtRp1051
(dp1052
g62
(dp1053
sg71
g1007
sg64
(lp1054
g57
(g78
g59
NtRp1055
(dp1056
g62
(dp1057
g82
g83
ssg71
g1051
sg64
(lp1058
g313
asbag57
(g78
g59
NtRp1059
(dp1060
g62
(dp1061
g89
g90
ssg71
g1051
sg64
(lp1062
S':'
asbag57
(g78
g59
NtRp1063
(dp1064
g62
(dp1065
sg71
g1051
sg64
(lp1066
g57
(g58
g59
NtRp1067
(dp1068
g62
(dp1069
g70
I3
ssg71
g1063
sg64
(lp1070
S''
asbasbasbag57
(g73
g59
NtRp1071
(dp1072
g62
(dp1073
sg71
g1007
sg64
(lp1074
g57
(g78
g59
NtRp1075
(dp1076
g62
(dp1077
g82
g83
ssg71
g1071
sg64
(lp1078
g334
asbag57
(g78
g59
NtRp1079
(dp1080
g62
(dp1081
g89
g90
ssg71
g1071
sg64
(lp1082
S':'
asbag57
(g78
g59
NtRp1083
(dp1084
g62
(dp1085
sg71
g1071
sg64
(lp1086
g57
(g58
g59
NtRp1087
(dp1088
g62
(dp1089
g70
I3
ssg71
g1083
sg64
(lp1090
S''
asbasbasbag57
(g73
g59
NtRp1091
(dp1092
g62
(dp1093
sg71
g1007
sg64
(lp1094
g57
(g78
g59
NtRp1095
(dp1096
g62
(dp1097
g82
g83
ssg71
g1091
sg64
(lp1098
g355
asbag57
(g78
g59
NtRp1099
(dp1100
g62
(dp1101
g89
g90
ssg71
g1091
sg64
(lp1102
S':'
asbag57
(g78
g59
NtRp1103
(dp1104
g62
(dp1105
sg71
g1091
sg64
(lp1106
g57
(g58
g59
NtRp1107
(dp1108
g62
(dp1109
g70
I3
ssg71
g1103
sg64
(lp1110
S''
asbasbasbag57
(g73
g59
NtRp1111
(dp1112
g62
(dp1113
sg71
g1007
sg64
(lp1114
g57
(g78
g59
NtRp1115
(dp1116
g62
(dp1117
g82
g83
ssg71
g1111
sg64
(lp1118
g376
asbag57
(g78
g59
NtRp1119
(dp1120
g62
(dp1121
g89
g90
ssg71
g1111
sg64
(lp1122
S':'
asbag57
(g78
g59
NtRp1123
(dp1124
g62
(dp1125
sg71
g1111
sg64
(lp1126
g57
(g58
g59
NtRp1127
(dp1128
g62
(dp1129
g70
I3
ssg71
g1123
sg64
(lp1130
S''
asbasbasbag57
(g73
g59
NtRp1131
(dp1132
g62
(dp1133
sg71
g1007
sg64
(lp1134
g57
(g78
g59
NtRp1135
(dp1136
g62
(dp1137
g82
g83
ssg71
g1131
sg64
(lp1138
g397
asbag57
(g78
g59
NtRp1139
(dp1140
g62
(dp1141
g89
g90
ssg71
g1131
sg64
(lp1142
S':'
asbag57
(g78
g59
NtRp1143
(dp1144
g62
(dp1145
sg71
g1131
sg64
(lp1146
g57
(g58
g59
NtRp1147
(dp1148
g62
(dp1149
g70
I3
ssg71
g1143
sg64
(lp1150
S''
asbasbasbag57
(g73
g59
NtRp1151
(dp1152
g62
(dp1153
sg71
g1007
sg64
(lp1154
g57
(g78
g59
NtRp1155
(dp1156
g62
(dp1157
g82
g83
ssg71
g1151
sg64
(lp1158
g418
asbag57
(g78
g59
NtRp1159
(dp1160
g62
(dp1161
g89
g90
ssg71
g1151
sg64
(lp1162
S':'
asbag57
(g78
g59
NtRp1163
(dp1164
g62
(dp1165
sg71
g1151
sg64
(lp1166
g57
(g58
g59
NtRp1167
(dp1168
g62
(dp1169
g70
I3
ssg71
g1163
sg64
(lp1170
S''
asbasbasbasbasbasbasbag57
(g73
g59
NtRp1171
(dp1172
g62
(dp1173
sg71
g234
sg64
(lp1174
g57
(g78
g59
NtRp1175
(dp1176
g62
(dp1177
g82
g83
ssg71
g1171
sg64
(lp1178
S'session_id_carsales'
p1179
asbag57
(g78
g59
NtRp1180
(dp1181
g62
(dp1182
g89
g90
ssg71
g1171
sg64
(lp1183
S':'
asbag57
(g78
g59
NtRp1184
(dp1185
g62
(dp1186
sg71
g1171
sg64
(lp1187
g57
(g58
g59
NtRp1188
(dp1189
g62
(dp1190
g70
I4
ssg71
g1184
sg64
(lp1191
g57
(g66
g59
NtRp1192
(dp1193
g62
(dp1194
g70
I3
ssg71
Nsg64
(lp1195
g57
(g73
g59
NtRp1196
(dp1197
g62
(dp1198
sg71
g1192
sg64
(lp1199
g57
(g78
g59
NtRp1200
(dp1201
g62
(dp1202
g82
g83
ssg71
g1196
sg64
(lp1203
g271
asbag57
(g78
g59
NtRp1204
(dp1205
g62
(dp1206
g89
g90
ssg71
g1196
sg64
(lp1207
S':'
asbag57
(g78
g59
NtRp1208
(dp1209
g62
(dp1210
sg71
g1196
sg64
(lp1211
g57
(g58
g59
NtRp1212
(dp1213
g62
(dp1214
g70
I3
ssg71
g1208
sg64
(lp1215
S''
asbasbasbag57
(g73
g59
NtRp1216
(dp1217
g62
(dp1218
sg71
g1192
sg64
(lp1219
g57
(g78
g59
NtRp1220
(dp1221
g62
(dp1222
g82
g83
ssg71
g1216
sg64
(lp1223
g292
asbag57
(g78
g59
NtRp1224
(dp1225
g62
(dp1226
g89
g90
ssg71
g1216
sg64
(lp1227
S':'
asbag57
(g78
g59
NtRp1228
(dp1229
g62
(dp1230
sg71
g1216
sg64
(lp1231
g57
(g58
g59
NtRp1232
(dp1233
g62
(dp1234
g70
I3
ssg71
g1228
sg64
(lp1235
S''
asbasbasbag57
(g73
g59
NtRp1236
(dp1237
g62
(dp1238
sg71
g1192
sg64
(lp1239
g57
(g78
g59
NtRp1240
(dp1241
g62
(dp1242
g82
g83
ssg71
g1236
sg64
(lp1243
g313
asbag57
(g78
g59
NtRp1244
(dp1245
g62
(dp1246
g89
g90
ssg71
g1236
sg64
(lp1247
S':'
asbag57
(g78
g59
NtRp1248
(dp1249
g62
(dp1250
sg71
g1236
sg64
(lp1251
g57
(g58
g59
NtRp1252
(dp1253
g62
(dp1254
g70
I3
ssg71
g1248
sg64
(lp1255
S''
asbasbasbag57
(g73
g59
NtRp1256
(dp1257
g62
(dp1258
sg71
g1192
sg64
(lp1259
g57
(g78
g59
NtRp1260
(dp1261
g62
(dp1262
g82
g83
ssg71
g1256
sg64
(lp1263
g334
asbag57
(g78
g59
NtRp1264
(dp1265
g62
(dp1266
g89
g90
ssg71
g1256
sg64
(lp1267
S':'
asbag57
(g78
g59
NtRp1268
(dp1269
g62
(dp1270
sg71
g1256
sg64
(lp1271
g57
(g58
g59
NtRp1272
(dp1273
g62
(dp1274
g70
I3
ssg71
g1268
sg64
(lp1275
S''
asbasbasbag57
(g73
g59
NtRp1276
(dp1277
g62
(dp1278
sg71
g1192
sg64
(lp1279
g57
(g78
g59
NtRp1280
(dp1281
g62
(dp1282
g82
g83
ssg71
g1276
sg64
(lp1283
g355
asbag57
(g78
g59
NtRp1284
(dp1285
g62
(dp1286
g89
g90
ssg71
g1276
sg64
(lp1287
S':'
asbag57
(g78
g59
NtRp1288
(dp1289
g62
(dp1290
sg71
g1276
sg64
(lp1291
g57
(g58
g59
NtRp1292
(dp1293
g62
(dp1294
g70
I3
ssg71
g1288
sg64
(lp1295
S''
asbasbasbag57
(g73
g59
NtRp1296
(dp1297
g62
(dp1298
sg71
g1192
sg64
(lp1299
g57
(g78
g59
NtRp1300
(dp1301
g62
(dp1302
g82
g83
ssg71
g1296
sg64
(lp1303
g376
asbag57
(g78
g59
NtRp1304
(dp1305
g62
(dp1306
g89
g90
ssg71
g1296
sg64
(lp1307
S':'
asbag57
(g78
g59
NtRp1308
(dp1309
g62
(dp1310
sg71
g1296
sg64
(lp1311
g57
(g58
g59
NtRp1312
(dp1313
g62
(dp1314
g70
I3
ssg71
g1308
sg64
(lp1315
S''
asbasbasbag57
(g73
g59
NtRp1316
(dp1317
g62
(dp1318
sg71
g1192
sg64
(lp1319
g57
(g78
g59
NtRp1320
(dp1321
g62
(dp1322
g82
g83
ssg71
g1316
sg64
(lp1323
g397
asbag57
(g78
g59
NtRp1324
(dp1325
g62
(dp1326
g89
g90
ssg71
g1316
sg64
(lp1327
S':'
asbag57
(g78
g59
NtRp1328
(dp1329
g62
(dp1330
sg71
g1316
sg64
(lp1331
g57
(g58
g59
NtRp1332
(dp1333
g62
(dp1334
g70
I3
ssg71
g1328
sg64
(lp1335
S''
asbasbasbag57
(g73
g59
NtRp1336
(dp1337
g62
(dp1338
sg71
g1192
sg64
(lp1339
g57
(g78
g59
NtRp1340
(dp1341
g62
(dp1342
g82
g83
ssg71
g1336
sg64
(lp1343
g418
asbag57
(g78
g59
NtRp1344
(dp1345
g62
(dp1346
g89
g90
ssg71
g1336
sg64
(lp1347
S':'
asbag57
(g78
g59
NtRp1348
(dp1349
g62
(dp1350
sg71
g1336
sg64
(lp1351
g57
(g58
g59
NtRp1352
(dp1353
g62
(dp1354
g70
I3
ssg71
g1348
sg64
(lp1355
S''
asbasbasbasbasbasbasbag57
(g73
g59
NtRp1356
(dp1357
g62
(dp1358
sg71
g234
sg64
(lp1359
g57
(g78
g59
NtRp1360
(dp1361
g62
(dp1362
g82
g83
ssg71
g1356
sg64
(lp1363
S'session_id_celeryintegrationexample'
p1364
asbag57
(g78
g59
NtRp1365
(dp1366
g62
(dp1367
g89
g90
ssg71
g1356
sg64
(lp1368
S':'
asbag57
(g78
g59
NtRp1369
(dp1370
g62
(dp1371
sg71
g1356
sg64
(lp1372
g57
(g58
g59
NtRp1373
(dp1374
g62
(dp1375
g70
I4
ssg71
g1369
sg64
(lp1376
g57
(g66
g59
NtRp1377
(dp1378
g62
(dp1379
g70
I3
ssg71
Nsg64
(lp1380
g57
(g73
g59
NtRp1381
(dp1382
g62
(dp1383
sg71
g1377
sg64
(lp1384
g57
(g78
g59
NtRp1385
(dp1386
g62
(dp1387
g82
g83
ssg71
g1381
sg64
(lp1388
g271
asbag57
(g78
g59
NtRp1389
(dp1390
g62
(dp1391
g89
g90
ssg71
g1381
sg64
(lp1392
S':'
asbag57
(g78
g59
NtRp1393
(dp1394
g62
(dp1395
sg71
g1381
sg64
(lp1396
g57
(g58
g59
NtRp1397
(dp1398
g62
(dp1399
g70
I3
ssg71
g1393
sg64
(lp1400
S''
asbasbasbag57
(g73
g59
NtRp1401
(dp1402
g62
(dp1403
sg71
g1377
sg64
(lp1404
g57
(g78
g59
NtRp1405
(dp1406
g62
(dp1407
g82
g83
ssg71
g1401
sg64
(lp1408
g292
asbag57
(g78
g59
NtRp1409
(dp1410
g62
(dp1411
g89
g90
ssg71
g1401
sg64
(lp1412
S':'
asbag57
(g78
g59
NtRp1413
(dp1414
g62
(dp1415
sg71
g1401
sg64
(lp1416
g57
(g58
g59
NtRp1417
(dp1418
g62
(dp1419
g70
I3
ssg71
g1413
sg64
(lp1420
S''
asbasbasbag57
(g73
g59
NtRp1421
(dp1422
g62
(dp1423
sg71
g1377
sg64
(lp1424
g57
(g78
g59
NtRp1425
(dp1426
g62
(dp1427
g82
g83
ssg71
g1421
sg64
(lp1428
g313
asbag57
(g78
g59
NtRp1429
(dp1430
g62
(dp1431
g89
g90
ssg71
g1421
sg64
(lp1432
S':'
asbag57
(g78
g59
NtRp1433
(dp1434
g62
(dp1435
sg71
g1421
sg64
(lp1436
g57
(g58
g59
NtRp1437
(dp1438
g62
(dp1439
g70
I3
ssg71
g1433
sg64
(lp1440
S''
asbasbasbag57
(g73
g59
NtRp1441
(dp1442
g62
(dp1443
sg71
g1377
sg64
(lp1444
g57
(g78
g59
NtRp1445
(dp1446
g62
(dp1447
g82
g83
ssg71
g1441
sg64
(lp1448
g334
asbag57
(g78
g59
NtRp1449
(dp1450
g62
(dp1451
g89
g90
ssg71
g1441
sg64
(lp1452
S':'
asbag57
(g78
g59
NtRp1453
(dp1454
g62
(dp1455
sg71
g1441
sg64
(lp1456
g57
(g58
g59
NtRp1457
(dp1458
g62
(dp1459
g70
I3
ssg71
g1453
sg64
(lp1460
S''
asbasbasbag57
(g73
g59
NtRp1461
(dp1462
g62
(dp1463
sg71
g1377
sg64
(lp1464
g57
(g78
g59
NtRp1465
(dp1466
g62
(dp1467
g82
g83
ssg71
g1461
sg64
(lp1468
g355
asbag57
(g78
g59
NtRp1469
(dp1470
g62
(dp1471
g89
g90
ssg71
g1461
sg64
(lp1472
S':'
asbag57
(g78
g59
NtRp1473
(dp1474
g62
(dp1475
sg71
g1461
sg64
(lp1476
g57
(g58
g59
NtRp1477
(dp1478
g62
(dp1479
g70
I3
ssg71
g1473
sg64
(lp1480
S''
asbasbasbag57
(g73
g59
NtRp1481
(dp1482
g62
(dp1483
sg71
g1377
sg64
(lp1484
g57
(g78
g59
NtRp1485
(dp1486
g62
(dp1487
g82
g83
ssg71
g1481
sg64
(lp1488
g376
asbag57
(g78
g59
NtRp1489
(dp1490
g62
(dp1491
g89
g90
ssg71
g1481
sg64
(lp1492
S':'
asbag57
(g78
g59
NtRp1493
(dp1494
g62
(dp1495
sg71
g1481
sg64
(lp1496
g57
(g58
g59
NtRp1497
(dp1498
g62
(dp1499
g70
I3
ssg71
g1493
sg64
(lp1500
S''
asbasbasbag57
(g73
g59
NtRp1501
(dp1502
g62
(dp1503
sg71
g1377
sg64
(lp1504
g57
(g78
g59
NtRp1505
(dp1506
g62
(dp1507
g82
g83
ssg71
g1501
sg64
(lp1508
g397
asbag57
(g78
g59
NtRp1509
(dp1510
g62
(dp1511
g89
g90
ssg71
g1501
sg64
(lp1512
S':'
asbag57
(g78
g59
NtRp1513
(dp1514
g62
(dp1515
sg71
g1501
sg64
(lp1516
g57
(g58
g59
NtRp1517
(dp1518
g62
(dp1519
g70
I3
ssg71
g1513
sg64
(lp1520
S''
asbasbasbag57
(g73
g59
NtRp1521
(dp1522
g62
(dp1523
sg71
g1377
sg64
(lp1524
g57
(g78
g59
NtRp1525
(dp1526
g62
(dp1527
g82
g83
ssg71
g1521
sg64
(lp1528
g418
asbag57
(g78
g59
NtRp1529
(dp1530
g62
(dp1531
g89
g90
ssg71
g1521
sg64
(lp1532
S':'
asbag57
(g78
g59
NtRp1533
(dp1534
g62
(dp1535
sg71
g1521
sg64
(lp1536
g57
(g58
g59
NtRp1537
(dp1538
g62
(dp1539
g70
I3
ssg71
g1533
sg64
(lp1540
S''
asbasbasbasbasbasbasbag57
(g73
g59
NtRp1541
(dp1542
g62
(dp1543
sg71
g234
sg64
(lp1544
g57
(g78
g59
NtRp1545
(dp1546
g62
(dp1547
g82
g83
ssg71
g1541
sg64
(lp1548
S'session_id_emailcontactform'
p1549
asbag57
(g78
g59
NtRp1550
(dp1551
g62
(dp1552
g89
g90
ssg71
g1541
sg64
(lp1553
S':'
asbag57
(g78
g59
NtRp1554
(dp1555
g62
(dp1556
sg71
g1541
sg64
(lp1557
g57
(g58
g59
NtRp1558
(dp1559
g62
(dp1560
g70
I4
ssg71
g1554
sg64
(lp1561
g57
(g66
g59
NtRp1562
(dp1563
g62
(dp1564
g70
I3
ssg71
Nsg64
(lp1565
g57
(g73
g59
NtRp1566
(dp1567
g62
(dp1568
sg71
g1562
sg64
(lp1569
g57
(g78
g59
NtRp1570
(dp1571
g62
(dp1572
g82
g83
ssg71
g1566
sg64
(lp1573
g271
asbag57
(g78
g59
NtRp1574
(dp1575
g62
(dp1576
g89
g90
ssg71
g1566
sg64
(lp1577
S':'
asbag57
(g78
g59
NtRp1578
(dp1579
g62
(dp1580
sg71
g1566
sg64
(lp1581
g57
(g58
g59
NtRp1582
(dp1583
g62
(dp1584
g70
I3
ssg71
g1578
sg64
(lp1585
S''
asbasbasbag57
(g73
g59
NtRp1586
(dp1587
g62
(dp1588
sg71
g1562
sg64
(lp1589
g57
(g78
g59
NtRp1590
(dp1591
g62
(dp1592
g82
g83
ssg71
g1586
sg64
(lp1593
g292
asbag57
(g78
g59
NtRp1594
(dp1595
g62
(dp1596
g89
g90
ssg71
g1586
sg64
(lp1597
S':'
asbag57
(g78
g59
NtRp1598
(dp1599
g62
(dp1600
sg71
g1586
sg64
(lp1601
g57
(g58
g59
NtRp1602
(dp1603
g62
(dp1604
g70
I3
ssg71
g1598
sg64
(lp1605
S''
asbasbasbag57
(g73
g59
NtRp1606
(dp1607
g62
(dp1608
sg71
g1562
sg64
(lp1609
g57
(g78
g59
NtRp1610
(dp1611
g62
(dp1612
g82
g83
ssg71
g1606
sg64
(lp1613
g313
asbag57
(g78
g59
NtRp1614
(dp1615
g62
(dp1616
g89
g90
ssg71
g1606
sg64
(lp1617
S':'
asbag57
(g78
g59
NtRp1618
(dp1619
g62
(dp1620
sg71
g1606
sg64
(lp1621
g57
(g58
g59
NtRp1622
(dp1623
g62
(dp1624
g70
I3
ssg71
g1618
sg64
(lp1625
S''
asbasbasbag57
(g73
g59
NtRp1626
(dp1627
g62
(dp1628
sg71
g1562
sg64
(lp1629
g57
(g78
g59
NtRp1630
(dp1631
g62
(dp1632
g82
g83
ssg71
g1626
sg64
(lp1633
g334
asbag57
(g78
g59
NtRp1634
(dp1635
g62
(dp1636
g89
g90
ssg71
g1626
sg64
(lp1637
S':'
asbag57
(g78
g59
NtRp1638
(dp1639
g62
(dp1640
sg71
g1626
sg64
(lp1641
g57
(g58
g59
NtRp1642
(dp1643
g62
(dp1644
g70
I3
ssg71
g1638
sg64
(lp1645
S''
asbasbasbag57
(g73
g59
NtRp1646
(dp1647
g62
(dp1648
sg71
g1562
sg64
(lp1649
g57
(g78
g59
NtRp1650
(dp1651
g62
(dp1652
g82
g83
ssg71
g1646
sg64
(lp1653
g355
asbag57
(g78
g59
NtRp1654
(dp1655
g62
(dp1656
g89
g90
ssg71
g1646
sg64
(lp1657
S':'
asbag57
(g78
g59
NtRp1658
(dp1659
g62
(dp1660
sg71
g1646
sg64
(lp1661
g57
(g58
g59
NtRp1662
(dp1663
g62
(dp1664
g70
I3
ssg71
g1658
sg64
(lp1665
S''
asbasbasbag57
(g73
g59
NtRp1666
(dp1667
g62
(dp1668
sg71
g1562
sg64
(lp1669
g57
(g78
g59
NtRp1670
(dp1671
g62
(dp1672
g82
g83
ssg71
g1666
sg64
(lp1673
g376
asbag57
(g78
g59
NtRp1674
(dp1675
g62
(dp1676
g89
g90
ssg71
g1666
sg64
(lp1677
S':'
asbag57
(g78
g59
NtRp1678
(dp1679
g62
(dp1680
sg71
g1666
sg64
(lp1681
g57
(g58
g59
NtRp1682
(dp1683
g62
(dp1684
g70
I3
ssg71
g1678
sg64
(lp1685
S''
asbasbasbag57
(g73
g59
NtRp1686
(dp1687
g62
(dp1688
sg71
g1562
sg64
(lp1689
g57
(g78
g59
NtRp1690
(dp1691
g62
(dp1692
g82
g83
ssg71
g1686
sg64
(lp1693
g397
asbag57
(g78
g59
NtRp1694
(dp1695
g62
(dp1696
g89
g90
ssg71
g1686
sg64
(lp1697
S':'
asbag57
(g78
g59
NtRp1698
(dp1699
g62
(dp1700
sg71
g1686
sg64
(lp1701
g57
(g58
g59
NtRp1702
(dp1703
g62
(dp1704
g70
I3
ssg71
g1698
sg64
(lp1705
S''
asbasbasbag57
(g73
g59
NtRp1706
(dp1707
g62
(dp1708
sg71
g1562
sg64
(lp1709
g57
(g78
g59
NtRp1710
(dp1711
g62
(dp1712
g82
g83
ssg71
g1706
sg64
(lp1713
g418
asbag57
(g78
g59
NtRp1714
(dp1715
g62
(dp1716
g89
g90
ssg71
g1706
sg64
(lp1717
S':'
asbag57
(g78
g59
NtRp1718
(dp1719
g62
(dp1720
sg71
g1706
sg64
(lp1721
g57
(g58
g59
NtRp1722
(dp1723
g62
(dp1724
g70
I3
ssg71
g1718
sg64
(lp1725
S''
asbasbasbasbasbasbasbag57
(g73
g59
NtRp1726
(dp1727
g62
(dp1728
sg71
g234
sg64
(lp1729
g57
(g78
g59
NtRp1730
(dp1731
g62
(dp1732
g82
g83
ssg71
g1726
sg64
(lp1733
S'session_id_estoreexample'
p1734
asbag57
(g78
g59
NtRp1735
(dp1736
g62
(dp1737
g89
g90
ssg71
g1726
sg64
(lp1738
S':'
asbag57
(g78
g59
NtRp1739
(dp1740
g62
(dp1741
sg71
g1726
sg64
(lp1742
g57
(g58
g59
NtRp1743
(dp1744
g62
(dp1745
g70
I4
ssg71
g1739
sg64
(lp1746
g57
(g66
g59
NtRp1747
(dp1748
g62
(dp1749
g70
I3
ssg71
Nsg64
(lp1750
g57
(g73
g59
NtRp1751
(dp1752
g62
(dp1753
sg71
g1747
sg64
(lp1754
g57
(g78
g59
NtRp1755
(dp1756
g62
(dp1757
g82
g83
ssg71
g1751
sg64
(lp1758
g271
asbag57
(g78
g59
NtRp1759
(dp1760
g62
(dp1761
g89
g90
ssg71
g1751
sg64
(lp1762
S':'
asbag57
(g78
g59
NtRp1763
(dp1764
g62
(dp1765
sg71
g1751
sg64
(lp1766
g57
(g58
g59
NtRp1767
(dp1768
g62
(dp1769
g70
I3
ssg71
g1763
sg64
(lp1770
S''
asbasbasbag57
(g73
g59
NtRp1771
(dp1772
g62
(dp1773
sg71
g1747
sg64
(lp1774
g57
(g78
g59
NtRp1775
(dp1776
g62
(dp1777
g82
g83
ssg71
g1771
sg64
(lp1778
g292
asbag57
(g78
g59
NtRp1779
(dp1780
g62
(dp1781
g89
g90
ssg71
g1771
sg64
(lp1782
S':'
asbag57
(g78
g59
NtRp1783
(dp1784
g62
(dp1785
sg71
g1771
sg64
(lp1786
g57
(g58
g59
NtRp1787
(dp1788
g62
(dp1789
g70
I3
ssg71
g1783
sg64
(lp1790
S''
asbasbasbag57
(g73
g59
NtRp1791
(dp1792
g62
(dp1793
sg71
g1747
sg64
(lp1794
g57
(g78
g59
NtRp1795
(dp1796
g62
(dp1797
g82
g83
ssg71
g1791
sg64
(lp1798
g313
asbag57
(g78
g59
NtRp1799
(dp1800
g62
(dp1801
g89
g90
ssg71
g1791
sg64
(lp1802
S':'
asbag57
(g78
g59
NtRp1803
(dp1804
g62
(dp1805
sg71
g1791
sg64
(lp1806
g57
(g58
g59
NtRp1807
(dp1808
g62
(dp1809
g70
I3
ssg71
g1803
sg64
(lp1810
S''
asbasbasbag57
(g73
g59
NtRp1811
(dp1812
g62
(dp1813
sg71
g1747
sg64
(lp1814
g57
(g78
g59
NtRp1815
(dp1816
g62
(dp1817
g82
g83
ssg71
g1811
sg64
(lp1818
g334
asbag57
(g78
g59
NtRp1819
(dp1820
g62
(dp1821
g89
g90
ssg71
g1811
sg64
(lp1822
S':'
asbag57
(g78
g59
NtRp1823
(dp1824
g62
(dp1825
sg71
g1811
sg64
(lp1826
g57
(g58
g59
NtRp1827
(dp1828
g62
(dp1829
g70
I3
ssg71
g1823
sg64
(lp1830
S''
asbasbasbag57
(g73
g59
NtRp1831
(dp1832
g62
(dp1833
sg71
g1747
sg64
(lp1834
g57
(g78
g59
NtRp1835
(dp1836
g62
(dp1837
g82
g83
ssg71
g1831
sg64
(lp1838
g355
asbag57
(g78
g59
NtRp1839
(dp1840
g62
(dp1841
g89
g90
ssg71
g1831
sg64
(lp1842
S':'
asbag57
(g78
g59
NtRp1843
(dp1844
g62
(dp1845
sg71
g1831
sg64
(lp1846
g57
(g58
g59
NtRp1847
(dp1848
g62
(dp1849
g70
I3
ssg71
g1843
sg64
(lp1850
S''
asbasbasbag57
(g73
g59
NtRp1851
(dp1852
g62
(dp1853
sg71
g1747
sg64
(lp1854
g57
(g78
g59
NtRp1855
(dp1856
g62
(dp1857
g82
g83
ssg71
g1851
sg64
(lp1858
g376
asbag57
(g78
g59
NtRp1859
(dp1860
g62
(dp1861
g89
g90
ssg71
g1851
sg64
(lp1862
S':'
asbag57
(g78
g59
NtRp1863
(dp1864
g62
(dp1865
sg71
g1851
sg64
(lp1866
g57
(g58
g59
NtRp1867
(dp1868
g62
(dp1869
g70
I3
ssg71
g1863
sg64
(lp1870
S''
asbasbasbag57
(g73
g59
NtRp1871
(dp1872
g62
(dp1873
sg71
g1747
sg64
(lp1874
g57
(g78
g59
NtRp1875
(dp1876
g62
(dp1877
g82
g83
ssg71
g1871
sg64
(lp1878
g397
asbag57
(g78
g59
NtRp1879
(dp1880
g62
(dp1881
g89
g90
ssg71
g1871
sg64
(lp1882
S':'
asbag57
(g78
g59
NtRp1883
(dp1884
g62
(dp1885
sg71
g1871
sg64
(lp1886
g57
(g58
g59
NtRp1887
(dp1888
g62
(dp1889
g70
I3
ssg71
g1883
sg64
(lp1890
S''
asbasbasbag57
(g73
g59
NtRp1891
(dp1892
g62
(dp1893
sg71
g1747
sg64
(lp1894
g57
(g78
g59
NtRp1895
(dp1896
g62
(dp1897
g82
g83
ssg71
g1891
sg64
(lp1898
g418
asbag57
(g78
g59
NtRp1899
(dp1900
g62
(dp1901
g89
g90
ssg71
g1891
sg64
(lp1902
S':'
asbag57
(g78
g59
NtRp1903
(dp1904
g62
(dp1905
sg71
g1891
sg64
(lp1906
g57
(g58
g59
NtRp1907
(dp1908
g62
(dp1909
g70
I3
ssg71
g1903
sg64
(lp1910
S''
asbasbasbasbasbasbasbag57
(g73
g59
NtRp1911
(dp1912
g62
(dp1913
sg71
g234
sg64
(lp1914
g57
(g78
g59
NtRp1915
(dp1916
g62
(dp1917
g82
g83
ssg71
g1911
sg64
(lp1918
S'session_id_facebookclone'
p1919
asbag57
(g78
g59
NtRp1920
(dp1921
g62
(dp1922
g89
g90
ssg71
g1911
sg64
(lp1923
S':'
asbag57
(g78
g59
NtRp1924
(dp1925
g62
(dp1926
sg71
g1911
sg64
(lp1927
g57
(g58
g59
NtRp1928
(dp1929
g62
(dp1930
g70
I4
ssg71
g1924
sg64
(lp1931
g57
(g66
g59
NtRp1932
(dp1933
g62
(dp1934
g70
I3
ssg71
Nsg64
(lp1935
g57
(g73
g59
NtRp1936
(dp1937
g62
(dp1938
sg71
g1932
sg64
(lp1939
g57
(g78
g59
NtRp1940
(dp1941
g62
(dp1942
g82
g83
ssg71
g1936
sg64
(lp1943
g271
asbag57
(g78
g59
NtRp1944
(dp1945
g62
(dp1946
g89
g90
ssg71
g1936
sg64
(lp1947
S':'
asbag57
(g78
g59
NtRp1948
(dp1949
g62
(dp1950
sg71
g1936
sg64
(lp1951
g57
(g58
g59
NtRp1952
(dp1953
g62
(dp1954
g70
I3
ssg71
g1948
sg64
(lp1955
S''
asbasbasbag57
(g73
g59
NtRp1956
(dp1957
g62
(dp1958
sg71
g1932
sg64
(lp1959
g57
(g78
g59
NtRp1960
(dp1961
g62
(dp1962
g82
g83
ssg71
g1956
sg64
(lp1963
g292
asbag57
(g78
g59
NtRp1964
(dp1965
g62
(dp1966
g89
g90
ssg71
g1956
sg64
(lp1967
S':'
asbag57
(g78
g59
NtRp1968
(dp1969
g62
(dp1970
sg71
g1956
sg64
(lp1971
g57
(g58
g59
NtRp1972
(dp1973
g62
(dp1974
g70
I3
ssg71
g1968
sg64
(lp1975
S''
asbasbasbag57
(g73
g59
NtRp1976
(dp1977
g62
(dp1978
sg71
g1932
sg64
(lp1979
g57
(g78
g59
NtRp1980
(dp1981
g62
(dp1982
g82
g83
ssg71
g1976
sg64
(lp1983
g313
asbag57
(g78
g59
NtRp1984
(dp1985
g62
(dp1986
g89
g90
ssg71
g1976
sg64
(lp1987
S':'
asbag57
(g78
g59
NtRp1988
(dp1989
g62
(dp1990
sg71
g1976
sg64
(lp1991
g57
(g58
g59
NtRp1992
(dp1993
g62
(dp1994
g70
I3
ssg71
g1988
sg64
(lp1995
S''
asbasbasbag57
(g73
g59
NtRp1996
(dp1997
g62
(dp1998
sg71
g1932
sg64
(lp1999
g57
(g78
g59
NtRp2000
(dp2001
g62
(dp2002
g82
g83
ssg71
g1996
sg64
(lp2003
g334
asbag57
(g78
g59
NtRp2004
(dp2005
g62
(dp2006
g89
g90
ssg71
g1996
sg64
(lp2007
S':'
asbag57
(g78
g59
NtRp2008
(dp2009
g62
(dp2010
sg71
g1996
sg64
(lp2011
g57
(g58
g59
NtRp2012
(dp2013
g62
(dp2014
g70
I3
ssg71
g2008
sg64
(lp2015
S''
asbasbasbag57
(g73
g59
NtRp2016
(dp2017
g62
(dp2018
sg71
g1932
sg64
(lp2019
g57
(g78
g59
NtRp2020
(dp2021
g62
(dp2022
g82
g83
ssg71
g2016
sg64
(lp2023
g355
asbag57
(g78
g59
NtRp2024
(dp2025
g62
(dp2026
g89
g90
ssg71
g2016
sg64
(lp2027
S':'
asbag57
(g78
g59
NtRp2028
(dp2029
g62
(dp2030
sg71
g2016
sg64
(lp2031
g57
(g58
g59
NtRp2032
(dp2033
g62
(dp2034
g70
I3
ssg71
g2028
sg64
(lp2035
S''
asbasbasbag57
(g73
g59
NtRp2036
(dp2037
g62
(dp2038
sg71
g1932
sg64
(lp2039
g57
(g78
g59
NtRp2040
(dp2041
g62
(dp2042
g82
g83
ssg71
g2036
sg64
(lp2043
g376
asbag57
(g78
g59
NtRp2044
(dp2045
g62
(dp2046
g89
g90
ssg71
g2036
sg64
(lp2047
S':'
asbag57
(g78
g59
NtRp2048
(dp2049
g62
(dp2050
sg71
g2036
sg64
(lp2051
g57
(g58
g59
NtRp2052
(dp2053
g62
(dp2054
g70
I3
ssg71
g2048
sg64
(lp2055
S''
asbasbasbag57
(g73
g59
NtRp2056
(dp2057
g62
(dp2058
sg71
g1932
sg64
(lp2059
g57
(g78
g59
NtRp2060
(dp2061
g62
(dp2062
g82
g83
ssg71
g2056
sg64
(lp2063
g397
asbag57
(g78
g59
NtRp2064
(dp2065
g62
(dp2066
g89
g90
ssg71
g2056
sg64
(lp2067
S':'
asbag57
(g78
g59
NtRp2068
(dp2069
g62
(dp2070
sg71
g2056
sg64
(lp2071
g57
(g58
g59
NtRp2072
(dp2073
g62
(dp2074
g70
I3
ssg71
g2068
sg64
(lp2075
S''
asbasbasbag57
(g73
g59
NtRp2076
(dp2077
g62
(dp2078
sg71
g1932
sg64
(lp2079
g57
(g78
g59
NtRp2080
(dp2081
g62
(dp2082
g82
g83
ssg71
g2076
sg64
(lp2083
g418
asbag57
(g78
g59
NtRp2084
(dp2085
g62
(dp2086
g89
g90
ssg71
g2076
sg64
(lp2087
S':'
asbag57
(g78
g59
NtRp2088
(dp2089
g62
(dp2090
sg71
g2076
sg64
(lp2091
g57
(g58
g59
NtRp2092
(dp2093
g62
(dp2094
g70
I3
ssg71
g2088
sg64
(lp2095
S''
asbasbasbasbasbasbasbag57
(g73
g59
NtRp2096
(dp2097
g62
(dp2098
sg71
g234
sg64
(lp2099
g57
(g78
g59
NtRp2100
(dp2101
g62
(dp2102
g82
g83
ssg71
g2096
sg64
(lp2103
S'session_id_facebookconnectexample'
p2104
asbag57
(g78
g59
NtRp2105
(dp2106
g62
(dp2107
g89
g90
ssg71
g2096
sg64
(lp2108
S':'
asbag57
(g78
g59
NtRp2109
(dp2110
g62
(dp2111
sg71
g2096
sg64
(lp2112
g57
(g58
g59
NtRp2113
(dp2114
g62
(dp2115
g70
I4
ssg71
g2109
sg64
(lp2116
g57
(g66
g59
NtRp2117
(dp2118
g62
(dp2119
g70
I3
ssg71
Nsg64
(lp2120
g57
(g73
g59
NtRp2121
(dp2122
g62
(dp2123
sg71
g2117
sg64
(lp2124
g57
(g78
g59
NtRp2125
(dp2126
g62
(dp2127
g82
g83
ssg71
g2121
sg64
(lp2128
g271
asbag57
(g78
g59
NtRp2129
(dp2130
g62
(dp2131
g89
g90
ssg71
g2121
sg64
(lp2132
S':'
asbag57
(g78
g59
NtRp2133
(dp2134
g62
(dp2135
sg71
g2121
sg64
(lp2136
g57
(g58
g59
NtRp2137
(dp2138
g62
(dp2139
g70
I3
ssg71
g2133
sg64
(lp2140
S''
asbasbasbag57
(g73
g59
NtRp2141
(dp2142
g62
(dp2143
sg71
g2117
sg64
(lp2144
g57
(g78
g59
NtRp2145
(dp2146
g62
(dp2147
g82
g83
ssg71
g2141
sg64
(lp2148
g292
asbag57
(g78
g59
NtRp2149
(dp2150
g62
(dp2151
g89
g90
ssg71
g2141
sg64
(lp2152
S':'
asbag57
(g78
g59
NtRp2153
(dp2154
g62
(dp2155
sg71
g2141
sg64
(lp2156
g57
(g58
g59
NtRp2157
(dp2158
g62
(dp2159
g70
I3
ssg71
g2153
sg64
(lp2160
S''
asbasbasbag57
(g73
g59
NtRp2161
(dp2162
g62
(dp2163
sg71
g2117
sg64
(lp2164
g57
(g78
g59
NtRp2165
(dp2166
g62
(dp2167
g82
g83
ssg71
g2161
sg64
(lp2168
g313
asbag57
(g78
g59
NtRp2169
(dp2170
g62
(dp2171
g89
g90
ssg71
g2161
sg64
(lp2172
S':'
asbag57
(g78
g59
NtRp2173
(dp2174
g62
(dp2175
sg71
g2161
sg64
(lp2176
g57
(g58
g59
NtRp2177
(dp2178
g62
(dp2179
g70
I3
ssg71
g2173
sg64
(lp2180
S''
asbasbasbag57
(g73
g59
NtRp2181
(dp2182
g62
(dp2183
sg71
g2117
sg64
(lp2184
g57
(g78
g59
NtRp2185
(dp2186
g62
(dp2187
g82
g83
ssg71
g2181
sg64
(lp2188
g334
asbag57
(g78
g59
NtRp2189
(dp2190
g62
(dp2191
g89
g90
ssg71
g2181
sg64
(lp2192
S':'
asbag57
(g78
g59
NtRp2193
(dp2194
g62
(dp2195
sg71
g2181
sg64
(lp2196
g57
(g58
g59
NtRp2197
(dp2198
g62
(dp2199
g70
I3
ssg71
g2193
sg64
(lp2200
S''
asbasbasbag57
(g73
g59
NtRp2201
(dp2202
g62
(dp2203
sg71
g2117
sg64
(lp2204
g57
(g78
g59
NtRp2205
(dp2206
g62
(dp2207
g82
g83
ssg71
g2201
sg64
(lp2208
g355
asbag57
(g78
g59
NtRp2209
(dp2210
g62
(dp2211
g89
g90
ssg71
g2201
sg64
(lp2212
S':'
asbag57
(g78
g59
NtRp2213
(dp2214
g62
(dp2215
sg71
g2201
sg64
(lp2216
g57
(g58
g59
NtRp2217
(dp2218
g62
(dp2219
g70
I3
ssg71
g2213
sg64
(lp2220
S''
asbasbasbag57
(g73
g59
NtRp2221
(dp2222
g62
(dp2223
sg71
g2117
sg64
(lp2224
g57
(g78
g59
NtRp2225
(dp2226
g62
(dp2227
g82
g83
ssg71
g2221
sg64
(lp2228
g376
asbag57
(g78
g59
NtRp2229
(dp2230
g62
(dp2231
g89
g90
ssg71
g2221
sg64
(lp2232
S':'
asbag57
(g78
g59
NtRp2233
(dp2234
g62
(dp2235
sg71
g2221
sg64
(lp2236
g57
(g58
g59
NtRp2237
(dp2238
g62
(dp2239
g70
I3
ssg71
g2233
sg64
(lp2240
S''
asbasbasbag57
(g73
g59
NtRp2241
(dp2242
g62
(dp2243
sg71
g2117
sg64
(lp2244
g57
(g78
g59
NtRp2245
(dp2246
g62
(dp2247
g82
g83
ssg71
g2241
sg64
(lp2248
g397
asbag57
(g78
g59
NtRp2249
(dp2250
g62
(dp2251
g89
g90
ssg71
g2241
sg64
(lp2252
S':'
asbag57
(g78
g59
NtRp2253
(dp2254
g62
(dp2255
sg71
g2241
sg64
(lp2256
g57
(g58
g59
NtRp2257
(dp2258
g62
(dp2259
g70
I3
ssg71
g2253
sg64
(lp2260
S''
asbasbasbag57
(g73
g59
NtRp2261
(dp2262
g62
(dp2263
sg71
g2117
sg64
(lp2264
g57
(g78
g59
NtRp2265
(dp2266
g62
(dp2267
g82
g83
ssg71
g2261
sg64
(lp2268
g418
asbag57
(g78
g59
NtRp2269
(dp2270
g62
(dp2271
g89
g90
ssg71
g2261
sg64
(lp2272
S':'
asbag57
(g78
g59
NtRp2273
(dp2274
g62
(dp2275
sg71
g2261
sg64
(lp2276
g57
(g58
g59
NtRp2277
(dp2278
g62
(dp2279
g70
I3
ssg71
g2273
sg64
(lp2280
S''
asbasbasbasbasbasbasbag57
(g73
g59
NtRp2281
(dp2282
g62
(dp2283
sg71
g234
sg64
(lp2284
g57
(g78
g59
NtRp2285
(dp2286
g62
(dp2287
g82
g83
ssg71
g2281
sg64
(lp2288
S'session_id_filemanager'
p2289
asbag57
(g78
g59
NtRp2290
(dp2291
g62
(dp2292
g89
g90
ssg71
g2281
sg64
(lp2293
S':'
asbag57
(g78
g59
NtRp2294
(dp2295
g62
(dp2296
sg71
g2281
sg64
(lp2297
g57
(g58
g59
NtRp2298
(dp2299
g62
(dp2300
g70
I4
ssg71
g2294
sg64
(lp2301
g57
(g66
g59
NtRp2302
(dp2303
g62
(dp2304
g70
I3
ssg71
Nsg64
(lp2305
g57
(g73
g59
NtRp2306
(dp2307
g62
(dp2308
sg71
g2302
sg64
(lp2309
g57
(g78
g59
NtRp2310
(dp2311
g62
(dp2312
g82
g83
ssg71
g2306
sg64
(lp2313
g271
asbag57
(g78
g59
NtRp2314
(dp2315
g62
(dp2316
g89
g90
ssg71
g2306
sg64
(lp2317
S':'
asbag57
(g78
g59
NtRp2318
(dp2319
g62
(dp2320
sg71
g2306
sg64
(lp2321
g57
(g58
g59
NtRp2322
(dp2323
g62
(dp2324
g70
I3
ssg71
g2318
sg64
(lp2325
S''
asbasbasbag57
(g73
g59
NtRp2326
(dp2327
g62
(dp2328
sg71
g2302
sg64
(lp2329
g57
(g78
g59
NtRp2330
(dp2331
g62
(dp2332
g82
g83
ssg71
g2326
sg64
(lp2333
g292
asbag57
(g78
g59
NtRp2334
(dp2335
g62
(dp2336
g89
g90
ssg71
g2326
sg64
(lp2337
S':'
asbag57
(g78
g59
NtRp2338
(dp2339
g62
(dp2340
sg71
g2326
sg64
(lp2341
g57
(g58
g59
NtRp2342
(dp2343
g62
(dp2344
g70
I3
ssg71
g2338
sg64
(lp2345
S''
asbasbasbag57
(g73
g59
NtRp2346
(dp2347
g62
(dp2348
sg71
g2302
sg64
(lp2349
g57
(g78
g59
NtRp2350
(dp2351
g62
(dp2352
g82
g83
ssg71
g2346
sg64
(lp2353
g313
asbag57
(g78
g59
NtRp2354
(dp2355
g62
(dp2356
g89
g90
ssg71
g2346
sg64
(lp2357
S':'
asbag57
(g78
g59
NtRp2358
(dp2359
g62
(dp2360
sg71
g2346
sg64
(lp2361
g57
(g58
g59
NtRp2362
(dp2363
g62
(dp2364
g70
I3
ssg71
g2358
sg64
(lp2365
S''
asbasbasbag57
(g73
g59
NtRp2366
(dp2367
g62
(dp2368
sg71
g2302
sg64
(lp2369
g57
(g78
g59
NtRp2370
(dp2371
g62
(dp2372
g82
g83
ssg71
g2366
sg64
(lp2373
g334
asbag57
(g78
g59
NtRp2374
(dp2375
g62
(dp2376
g89
g90
ssg71
g2366
sg64
(lp2377
S':'
asbag57
(g78
g59
NtRp2378
(dp2379
g62
(dp2380
sg71
g2366
sg64
(lp2381
g57
(g58
g59
NtRp2382
(dp2383
g62
(dp2384
g70
I3
ssg71
g2378
sg64
(lp2385
S''
asbasbasbag57
(g73
g59
NtRp2386
(dp2387
g62
(dp2388
sg71
g2302
sg64
(lp2389
g57
(g78
g59
NtRp2390
(dp2391
g62
(dp2392
g82
g83
ssg71
g2386
sg64
(lp2393
g355
asbag57
(g78
g59
NtRp2394
(dp2395
g62
(dp2396
g89
g90
ssg71
g2386
sg64
(lp2397
S':'
asbag57
(g78
g59
NtRp2398
(dp2399
g62
(dp2400
sg71
g2386
sg64
(lp2401
g57
(g58
g59
NtRp2402
(dp2403
g62
(dp2404
g70
I3
ssg71
g2398
sg64
(lp2405
S''
asbasbasbag57
(g73
g59
NtRp2406
(dp2407
g62
(dp2408
sg71
g2302
sg64
(lp2409
g57
(g78
g59
NtRp2410
(dp2411
g62
(dp2412
g82
g83
ssg71
g2406
sg64
(lp2413
g376
asbag57
(g78
g59
NtRp2414
(dp2415
g62
(dp2416
g89
g90
ssg71
g2406
sg64
(lp2417
S':'
asbag57
(g78
g59
NtRp2418
(dp2419
g62
(dp2420
sg71
g2406
sg64
(lp2421
g57
(g58
g59
NtRp2422
(dp2423
g62
(dp2424
g70
I3
ssg71
g2418
sg64
(lp2425
S''
asbasbasbag57
(g73
g59
NtRp2426
(dp2427
g62
(dp2428
sg71
g2302
sg64
(lp2429
g57
(g78
g59
NtRp2430
(dp2431
g62
(dp2432
g82
g83
ssg71
g2426
sg64
(lp2433
g397
asbag57
(g78
g59
NtRp2434
(dp2435
g62
(dp2436
g89
g90
ssg71
g2426
sg64
(lp2437
S':'
asbag57
(g78
g59
NtRp2438
(dp2439
g62
(dp2440
sg71
g2426
sg64
(lp2441
g57
(g58
g59
NtRp2442
(dp2443
g62
(dp2444
g70
I3
ssg71
g2438
sg64
(lp2445
S''
asbasbasbag57
(g73
g59
NtRp2446
(dp2447
g62
(dp2448
sg71
g2302
sg64
(lp2449
g57
(g78
g59
NtRp2450
(dp2451
g62
(dp2452
g82
g83
ssg71
g2446
sg64
(lp2453
g418
asbag57
(g78
g59
NtRp2454
(dp2455
g62
(dp2456
g89
g90
ssg71
g2446
sg64
(lp2457
S':'
asbag57
(g78
g59
NtRp2458
(dp2459
g62
(dp2460
sg71
g2446
sg64
(lp2461
g57
(g58
g59
NtRp2462
(dp2463
g62
(dp2464
g70
I3
ssg71
g2458
sg64
(lp2465
S''
asbasbasbasbasbasbasbag57
(g73
g59
NtRp2466
(dp2467
g62
(dp2468
sg71
g234
sg64
(lp2469
g57
(g78
g59
NtRp2470
(dp2471
g62
(dp2472
g82
g83
ssg71
g2466
sg64
(lp2473
S'session_id_filetreebrowser'
p2474
asbag57
(g78
g59
NtRp2475
(dp2476
g62
(dp2477
g89
g90
ssg71
g2466
sg64
(lp2478
S':'
asbag57
(g78
g59
NtRp2479
(dp2480
g62
(dp2481
sg71
g2466
sg64
(lp2482
g57
(g58
g59
NtRp2483
(dp2484
g62
(dp2485
g70
I4
ssg71
g2479
sg64
(lp2486
g57
(g66
g59
NtRp2487
(dp2488
g62
(dp2489
g70
I3
ssg71
Nsg64
(lp2490
g57
(g73
g59
NtRp2491
(dp2492
g62
(dp2493
sg71
g2487
sg64
(lp2494
g57
(g78
g59
NtRp2495
(dp2496
g62
(dp2497
g82
g83
ssg71
g2491
sg64
(lp2498
g271
asbag57
(g78
g59
NtRp2499
(dp2500
g62
(dp2501
g89
g90
ssg71
g2491
sg64
(lp2502
S':'
asbag57
(g78
g59
NtRp2503
(dp2504
g62
(dp2505
sg71
g2491
sg64
(lp2506
g57
(g58
g59
NtRp2507
(dp2508
g62
(dp2509
g70
I3
ssg71
g2503
sg64
(lp2510
S''
asbasbasbag57
(g73
g59
NtRp2511
(dp2512
g62
(dp2513
sg71
g2487
sg64
(lp2514
g57
(g78
g59
NtRp2515
(dp2516
g62
(dp2517
g82
g83
ssg71
g2511
sg64
(lp2518
g292
asbag57
(g78
g59
NtRp2519
(dp2520
g62
(dp2521
g89
g90
ssg71
g2511
sg64
(lp2522
S':'
asbag57
(g78
g59
NtRp2523
(dp2524
g62
(dp2525
sg71
g2511
sg64
(lp2526
g57
(g58
g59
NtRp2527
(dp2528
g62
(dp2529
g70
I3
ssg71
g2523
sg64
(lp2530
S''
asbasbasbag57
(g73
g59
NtRp2531
(dp2532
g62
(dp2533
sg71
g2487
sg64
(lp2534
g57
(g78
g59
NtRp2535
(dp2536
g62
(dp2537
g82
g83
ssg71
g2531
sg64
(lp2538
g313
asbag57
(g78
g59
NtRp2539
(dp2540
g62
(dp2541
g89
g90
ssg71
g2531
sg64
(lp2542
S':'
asbag57
(g78
g59
NtRp2543
(dp2544
g62
(dp2545
sg71
g2531
sg64
(lp2546
g57
(g58
g59
NtRp2547
(dp2548
g62
(dp2549
g70
I3
ssg71
g2543
sg64
(lp2550
S''
asbasbasbag57
(g73
g59
NtRp2551
(dp2552
g62
(dp2553
sg71
g2487
sg64
(lp2554
g57
(g78
g59
NtRp2555
(dp2556
g62
(dp2557
g82
g83
ssg71
g2551
sg64
(lp2558
g334
asbag57
(g78
g59
NtRp2559
(dp2560
g62
(dp2561
g89
g90
ssg71
g2551
sg64
(lp2562
S':'
asbag57
(g78
g59
NtRp2563
(dp2564
g62
(dp2565
sg71
g2551
sg64
(lp2566
g57
(g58
g59
NtRp2567
(dp2568
g62
(dp2569
g70
I3
ssg71
g2563
sg64
(lp2570
S''
asbasbasbag57
(g73
g59
NtRp2571
(dp2572
g62
(dp2573
sg71
g2487
sg64
(lp2574
g57
(g78
g59
NtRp2575
(dp2576
g62
(dp2577
g82
g83
ssg71
g2571
sg64
(lp2578
g355
asbag57
(g78
g59
NtRp2579
(dp2580
g62
(dp2581
g89
g90
ssg71
g2571
sg64
(lp2582
S':'
asbag57
(g78
g59
NtRp2583
(dp2584
g62
(dp2585
sg71
g2571
sg64
(lp2586
g57
(g58
g59
NtRp2587
(dp2588
g62
(dp2589
g70
I3
ssg71
g2583
sg64
(lp2590
S''
asbasbasbag57
(g73
g59
NtRp2591
(dp2592
g62
(dp2593
sg71
g2487
sg64
(lp2594
g57
(g78
g59
NtRp2595
(dp2596
g62
(dp2597
g82
g83
ssg71
g2591
sg64
(lp2598
g376
asbag57
(g78
g59
NtRp2599
(dp2600
g62
(dp2601
g89
g90
ssg71
g2591
sg64
(lp2602
S':'
asbag57
(g78
g59
NtRp2603
(dp2604
g62
(dp2605
sg71
g2591
sg64
(lp2606
g57
(g58
g59
NtRp2607
(dp2608
g62
(dp2609
g70
I3
ssg71
g2603
sg64
(lp2610
S''
asbasbasbag57
(g73
g59
NtRp2611
(dp2612
g62
(dp2613
sg71
g2487
sg64
(lp2614
g57
(g78
g59
NtRp2615
(dp2616
g62
(dp2617
g82
g83
ssg71
g2611
sg64
(lp2618
g397
asbag57
(g78
g59
NtRp2619
(dp2620
g62
(dp2621
g89
g90
ssg71
g2611
sg64
(lp2622
S':'
asbag57
(g78
g59
NtRp2623
(dp2624
g62
(dp2625
sg71
g2611
sg64
(lp2626
g57
(g58
g59
NtRp2627
(dp2628
g62
(dp2629
g70
I3
ssg71
g2623
sg64
(lp2630
S''
asbasbasbag57
(g73
g59
NtRp2631
(dp2632
g62
(dp2633
sg71
g2487
sg64
(lp2634
g57
(g78
g59
NtRp2635
(dp2636
g62
(dp2637
g82
g83
ssg71
g2631
sg64
(lp2638
g418
asbag57
(g78
g59
NtRp2639
(dp2640
g62
(dp2641
g89
g90
ssg71
g2631
sg64
(lp2642
S':'
asbag57
(g78
g59
NtRp2643
(dp2644
g62
(dp2645
sg71
g2631
sg64
(lp2646
g57
(g58
g59
NtRp2647
(dp2648
g62
(dp2649
g70
I3
ssg71
g2643
sg64
(lp2650
S''
asbasbasbasbasbasbasbag57
(g73
g59
NtRp2651
(dp2652
g62
(dp2653
sg71
g234
sg64
(lp2654
g57
(g78
g59
NtRp2655
(dp2656
g62
(dp2657
g82
g83
ssg71
g2651
sg64
(lp2658
S'session_id_imagegallery'
p2659
asbag57
(g78
g59
NtRp2660
(dp2661
g62
(dp2662
g89
g90
ssg71
g2651
sg64
(lp2663
S':'
asbag57
(g78
g59
NtRp2664
(dp2665
g62
(dp2666
sg71
g2651
sg64
(lp2667
g57
(g58
g59
NtRp2668
(dp2669
g62
(dp2670
g70
I4
ssg71
g2664
sg64
(lp2671
g57
(g66
g59
NtRp2672
(dp2673
g62
(dp2674
g70
I3
ssg71
Nsg64
(lp2675
g57
(g73
g59
NtRp2676
(dp2677
g62
(dp2678
sg71
g2672
sg64
(lp2679
g57
(g78
g59
NtRp2680
(dp2681
g62
(dp2682
g82
g83
ssg71
g2676
sg64
(lp2683
g271
asbag57
(g78
g59
NtRp2684
(dp2685
g62
(dp2686
g89
g90
ssg71
g2676
sg64
(lp2687
S':'
asbag57
(g78
g59
NtRp2688
(dp2689
g62
(dp2690
sg71
g2676
sg64
(lp2691
g57
(g58
g59
NtRp2692
(dp2693
g62
(dp2694
g70
I3
ssg71
g2688
sg64
(lp2695
S''
asbasbasbag57
(g73
g59
NtRp2696
(dp2697
g62
(dp2698
sg71
g2672
sg64
(lp2699
g57
(g78
g59
NtRp2700
(dp2701
g62
(dp2702
g82
g83
ssg71
g2696
sg64
(lp2703
g292
asbag57
(g78
g59
NtRp2704
(dp2705
g62
(dp2706
g89
g90
ssg71
g2696
sg64
(lp2707
S':'
asbag57
(g78
g59
NtRp2708
(dp2709
g62
(dp2710
sg71
g2696
sg64
(lp2711
g57
(g58
g59
NtRp2712
(dp2713
g62
(dp2714
g70
I3
ssg71
g2708
sg64
(lp2715
S''
asbasbasbag57
(g73
g59
NtRp2716
(dp2717
g62
(dp2718
sg71
g2672
sg64
(lp2719
g57
(g78
g59
NtRp2720
(dp2721
g62
(dp2722
g82
g83
ssg71
g2716
sg64
(lp2723
g313
asbag57
(g78
g59
NtRp2724
(dp2725
g62
(dp2726
g89
g90
ssg71
g2716
sg64
(lp2727
S':'
asbag57
(g78
g59
NtRp2728
(dp2729
g62
(dp2730
sg71
g2716
sg64
(lp2731
g57
(g58
g59
NtRp2732
(dp2733
g62
(dp2734
g70
I3
ssg71
g2728
sg64
(lp2735
S''
asbasbasbag57
(g73
g59
NtRp2736
(dp2737
g62
(dp2738
sg71
g2672
sg64
(lp2739
g57
(g78
g59
NtRp2740
(dp2741
g62
(dp2742
g82
g83
ssg71
g2736
sg64
(lp2743
g334
asbag57
(g78
g59
NtRp2744
(dp2745
g62
(dp2746
g89
g90
ssg71
g2736
sg64
(lp2747
S':'
asbag57
(g78
g59
NtRp2748
(dp2749
g62
(dp2750
sg71
g2736
sg64
(lp2751
g57
(g58
g59
NtRp2752
(dp2753
g62
(dp2754
g70
I3
ssg71
g2748
sg64
(lp2755
S''
asbasbasbag57
(g73
g59
NtRp2756
(dp2757
g62
(dp2758
sg71
g2672
sg64
(lp2759
g57
(g78
g59
NtRp2760
(dp2761
g62
(dp2762
g82
g83
ssg71
g2756
sg64
(lp2763
g355
asbag57
(g78
g59
NtRp2764
(dp2765
g62
(dp2766
g89
g90
ssg71
g2756
sg64
(lp2767
S':'
asbag57
(g78
g59
NtRp2768
(dp2769
g62
(dp2770
sg71
g2756
sg64
(lp2771
g57
(g58
g59
NtRp2772
(dp2773
g62
(dp2774
g70
I3
ssg71
g2768
sg64
(lp2775
S''
asbasbasbag57
(g73
g59
NtRp2776
(dp2777
g62
(dp2778
sg71
g2672
sg64
(lp2779
g57
(g78
g59
NtRp2780
(dp2781
g62
(dp2782
g82
g83
ssg71
g2776
sg64
(lp2783
g376
asbag57
(g78
g59
NtRp2784
(dp2785
g62
(dp2786
g89
g90
ssg71
g2776
sg64
(lp2787
S':'
asbag57
(g78
g59
NtRp2788
(dp2789
g62
(dp2790
sg71
g2776
sg64
(lp2791
g57
(g58
g59
NtRp2792
(dp2793
g62
(dp2794
g70
I3
ssg71
g2788
sg64
(lp2795
S''
asbasbasbag57
(g73
g59
NtRp2796
(dp2797
g62
(dp2798
sg71
g2672
sg64
(lp2799
g57
(g78
g59
NtRp2800
(dp2801
g62
(dp2802
g82
g83
ssg71
g2796
sg64
(lp2803
g397
asbag57
(g78
g59
NtRp2804
(dp2805
g62
(dp2806
g89
g90
ssg71
g2796
sg64
(lp2807
S':'
asbag57
(g78
g59
NtRp2808
(dp2809
g62
(dp2810
sg71
g2796
sg64
(lp2811
g57
(g58
g59
NtRp2812
(dp2813
g62
(dp2814
g70
I3
ssg71
g2808
sg64
(lp2815
S''
asbasbasbag57
(g73
g59
NtRp2816
(dp2817
g62
(dp2818
sg71
g2672
sg64
(lp2819
g57
(g78
g59
NtRp2820
(dp2821
g62
(dp2822
g82
g83
ssg71
g2816
sg64
(lp2823
g418
asbag57
(g78
g59
NtRp2824
(dp2825
g62
(dp2826
g89
g90
ssg71
g2816
sg64
(lp2827
S':'
asbag57
(g78
g59
NtRp2828
(dp2829
g62
(dp2830
sg71
g2816
sg64
(lp2831
g57
(g58
g59
NtRp2832
(dp2833
g62
(dp2834
g70
I3
ssg71
g2828
sg64
(lp2835
S''
asbasbasbasbasbasbasbag57
(g73
g59
NtRp2836
(dp2837
g62
(dp2838
sg71
g234
sg64
(lp2839
g57
(g78
g59
NtRp2840
(dp2841
g62
(dp2842
g82
g83
ssg71
g2836
sg64
(lp2843
S'session_id_managecontacts'
p2844
asbag57
(g78
g59
NtRp2845
(dp2846
g62
(dp2847
g89
g90
ssg71
g2836
sg64
(lp2848
S':'
asbag57
(g78
g59
NtRp2849
(dp2850
g62
(dp2851
sg71
g2836
sg64
(lp2852
g57
(g58
g59
NtRp2853
(dp2854
g62
(dp2855
g70
I4
ssg71
g2849
sg64
(lp2856
g57
(g66
g59
NtRp2857
(dp2858
g62
(dp2859
g70
I3
ssg71
Nsg64
(lp2860
g57
(g73
g59
NtRp2861
(dp2862
g62
(dp2863
sg71
g2857
sg64
(lp2864
g57
(g78
g59
NtRp2865
(dp2866
g62
(dp2867
g82
g83
ssg71
g2861
sg64
(lp2868
g271
asbag57
(g78
g59
NtRp2869
(dp2870
g62
(dp2871
g89
g90
ssg71
g2861
sg64
(lp2872
S':'
asbag57
(g78
g59
NtRp2873
(dp2874
g62
(dp2875
sg71
g2861
sg64
(lp2876
g57
(g58
g59
NtRp2877
(dp2878
g62
(dp2879
g70
I3
ssg71
g2873
sg64
(lp2880
S''
asbasbasbag57
(g73
g59
NtRp2881
(dp2882
g62
(dp2883
sg71
g2857
sg64
(lp2884
g57
(g78
g59
NtRp2885
(dp2886
g62
(dp2887
g82
g83
ssg71
g2881
sg64
(lp2888
g292
asbag57
(g78
g59
NtRp2889
(dp2890
g62
(dp2891
g89
g90
ssg71
g2881
sg64
(lp2892
S':'
asbag57
(g78
g59
NtRp2893
(dp2894
g62
(dp2895
sg71
g2881
sg64
(lp2896
g57
(g58
g59
NtRp2897
(dp2898
g62
(dp2899
g70
I3
ssg71
g2893
sg64
(lp2900
S''
asbasbasbag57
(g73
g59
NtRp2901
(dp2902
g62
(dp2903
sg71
g2857
sg64
(lp2904
g57
(g78
g59
NtRp2905
(dp2906
g62
(dp2907
g82
g83
ssg71
g2901
sg64
(lp2908
g313
asbag57
(g78
g59
NtRp2909
(dp2910
g62
(dp2911
g89
g90
ssg71
g2901
sg64
(lp2912
S':'
asbag57
(g78
g59
NtRp2913
(dp2914
g62
(dp2915
sg71
g2901
sg64
(lp2916
g57
(g58
g59
NtRp2917
(dp2918
g62
(dp2919
g70
I3
ssg71
g2913
sg64
(lp2920
S''
asbasbasbag57
(g73
g59
NtRp2921
(dp2922
g62
(dp2923
sg71
g2857
sg64
(lp2924
g57
(g78
g59
NtRp2925
(dp2926
g62
(dp2927
g82
g83
ssg71
g2921
sg64
(lp2928
g334
asbag57
(g78
g59
NtRp2929
(dp2930
g62
(dp2931
g89
g90
ssg71
g2921
sg64
(lp2932
S':'
asbag57
(g78
g59
NtRp2933
(dp2934
g62
(dp2935
sg71
g2921
sg64
(lp2936
g57
(g58
g59
NtRp2937
(dp2938
g62
(dp2939
g70
I3
ssg71
g2933
sg64
(lp2940
S''
asbasbasbag57
(g73
g59
NtRp2941
(dp2942
g62
(dp2943
sg71
g2857
sg64
(lp2944
g57
(g78
g59
NtRp2945
(dp2946
g62
(dp2947
g82
g83
ssg71
g2941
sg64
(lp2948
g355
asbag57
(g78
g59
NtRp2949
(dp2950
g62
(dp2951
g89
g90
ssg71
g2941
sg64
(lp2952
S':'
asbag57
(g78
g59
NtRp2953
(dp2954
g62
(dp2955
sg71
g2941
sg64
(lp2956
g57
(g58
g59
NtRp2957
(dp2958
g62
(dp2959
g70
I3
ssg71
g2953
sg64
(lp2960
S''
asbasbasbag57
(g73
g59
NtRp2961
(dp2962
g62
(dp2963
sg71
g2857
sg64
(lp2964
g57
(g78
g59
NtRp2965
(dp2966
g62
(dp2967
g82
g83
ssg71
g2961
sg64
(lp2968
g376
asbag57
(g78
g59
NtRp2969
(dp2970
g62
(dp2971
g89
g90
ssg71
g2961
sg64
(lp2972
S':'
asbag57
(g78
g59
NtRp2973
(dp2974
g62
(dp2975
sg71
g2961
sg64
(lp2976
g57
(g58
g59
NtRp2977
(dp2978
g62
(dp2979
g70
I3
ssg71
g2973
sg64
(lp2980
S''
asbasbasbag57
(g73
g59
NtRp2981
(dp2982
g62
(dp2983
sg71
g2857
sg64
(lp2984
g57
(g78
g59
NtRp2985
(dp2986
g62
(dp2987
g82
g83
ssg71
g2981
sg64
(lp2988
g397
asbag57
(g78
g59
NtRp2989
(dp2990
g62
(dp2991
g89
g90
ssg71
g2981
sg64
(lp2992
S':'
asbag57
(g78
g59
NtRp2993
(dp2994
g62
(dp2995
sg71
g2981
sg64
(lp2996
g57
(g58
g59
NtRp2997
(dp2998
g62
(dp2999
g70
I3
ssg71
g2993
sg64
(lp3000
S''
asbasbasbag57
(g73
g59
NtRp3001
(dp3002
g62
(dp3003
sg71
g2857
sg64
(lp3004
g57
(g78
g59
NtRp3005
(dp3006
g62
(dp3007
g82
g83
ssg71
g3001
sg64
(lp3008
g418
asbag57
(g78
g59
NtRp3009
(dp3010
g62
(dp3011
g89
g90
ssg71
g3001
sg64
(lp3012
S':'
asbag57
(g78
g59
NtRp3013
(dp3014
g62
(dp3015
sg71
g3001
sg64
(lp3016
g57
(g58
g59
NtRp3017
(dp3018
g62
(dp3019
g70
I3
ssg71
g3013
sg64
(lp3020
S''
asbasbasbasbasbasbasbag57
(g73
g59
NtRp3021
(dp3022
g62
(dp3023
sg71
g234
sg64
(lp3024
g57
(g78
g59
NtRp3025
(dp3026
g62
(dp3027
g82
g83
ssg71
g3021
sg64
(lp3028
S'session_id_onlinemagazine'
p3029
asbag57
(g78
g59
NtRp3030
(dp3031
g62
(dp3032
g89
g90
ssg71
g3021
sg64
(lp3033
S':'
asbag57
(g78
g59
NtRp3034
(dp3035
g62
(dp3036
sg71
g3021
sg64
(lp3037
g57
(g58
g59
NtRp3038
(dp3039
g62
(dp3040
g70
I4
ssg71
g3034
sg64
(lp3041
g57
(g66
g59
NtRp3042
(dp3043
g62
(dp3044
g70
I3
ssg71
Nsg64
(lp3045
g57
(g73
g59
NtRp3046
(dp3047
g62
(dp3048
sg71
g3042
sg64
(lp3049
g57
(g78
g59
NtRp3050
(dp3051
g62
(dp3052
g82
g83
ssg71
g3046
sg64
(lp3053
g271
asbag57
(g78
g59
NtRp3054
(dp3055
g62
(dp3056
g89
g90
ssg71
g3046
sg64
(lp3057
S':'
asbag57
(g78
g59
NtRp3058
(dp3059
g62
(dp3060
sg71
g3046
sg64
(lp3061
g57
(g58
g59
NtRp3062
(dp3063
g62
(dp3064
g70
I3
ssg71
g3058
sg64
(lp3065
S''
asbasbasbag57
(g73
g59
NtRp3066
(dp3067
g62
(dp3068
sg71
g3042
sg64
(lp3069
g57
(g78
g59
NtRp3070
(dp3071
g62
(dp3072
g82
g83
ssg71
g3066
sg64
(lp3073
g292
asbag57
(g78
g59
NtRp3074
(dp3075
g62
(dp3076
g89
g90
ssg71
g3066
sg64
(lp3077
S':'
asbag57
(g78
g59
NtRp3078
(dp3079
g62
(dp3080
sg71
g3066
sg64
(lp3081
g57
(g58
g59
NtRp3082
(dp3083
g62
(dp3084
g70
I3
ssg71
g3078
sg64
(lp3085
S''
asbasbasbag57
(g73
g59
NtRp3086
(dp3087
g62
(dp3088
sg71
g3042
sg64
(lp3089
g57
(g78
g59
NtRp3090
(dp3091
g62
(dp3092
g82
g83
ssg71
g3086
sg64
(lp3093
g313
asbag57
(g78
g59
NtRp3094
(dp3095
g62
(dp3096
g89
g90
ssg71
g3086
sg64
(lp3097
S':'
asbag57
(g78
g59
NtRp3098
(dp3099
g62
(dp3100
sg71
g3086
sg64
(lp3101
g57
(g58
g59
NtRp3102
(dp3103
g62
(dp3104
g70
I3
ssg71
g3098
sg64
(lp3105
S''
asbasbasbag57
(g73
g59
NtRp3106
(dp3107
g62
(dp3108
sg71
g3042
sg64
(lp3109
g57
(g78
g59
NtRp3110
(dp3111
g62
(dp3112
g82
g83
ssg71
g3106
sg64
(lp3113
g334
asbag57
(g78
g59
NtRp3114
(dp3115
g62
(dp3116
g89
g90
ssg71
g3106
sg64
(lp3117
S':'
asbag57
(g78
g59
NtRp3118
(dp3119
g62
(dp3120
sg71
g3106
sg64
(lp3121
g57
(g58
g59
NtRp3122
(dp3123
g62
(dp3124
g70
I3
ssg71
g3118
sg64
(lp3125
S''
asbasbasbag57
(g73
g59
NtRp3126
(dp3127
g62
(dp3128
sg71
g3042
sg64
(lp3129
g57
(g78
g59
NtRp3130
(dp3131
g62
(dp3132
g82
g83
ssg71
g3126
sg64
(lp3133
g355
asbag57
(g78
g59
NtRp3134
(dp3135
g62
(dp3136
g89
g90
ssg71
g3126
sg64
(lp3137
S':'
asbag57
(g78
g59
NtRp3138
(dp3139
g62
(dp3140
sg71
g3126
sg64
(lp3141
g57
(g58
g59
NtRp3142
(dp3143
g62
(dp3144
g70
I3
ssg71
g3138
sg64
(lp3145
S''
asbasbasbag57
(g73
g59
NtRp3146
(dp3147
g62
(dp3148
sg71
g3042
sg64
(lp3149
g57
(g78
g59
NtRp3150
(dp3151
g62
(dp3152
g82
g83
ssg71
g3146
sg64
(lp3153
g376
asbag57
(g78
g59
NtRp3154
(dp3155
g62
(dp3156
g89
g90
ssg71
g3146
sg64
(lp3157
S':'
asbag57
(g78
g59
NtRp3158
(dp3159
g62
(dp3160
sg71
g3146
sg64
(lp3161
g57
(g58
g59
NtRp3162
(dp3163
g62
(dp3164
g70
I3
ssg71
g3158
sg64
(lp3165
S''
asbasbasbag57
(g73
g59
NtRp3166
(dp3167
g62
(dp3168
sg71
g3042
sg64
(lp3169
g57
(g78
g59
NtRp3170
(dp3171
g62
(dp3172
g82
g83
ssg71
g3166
sg64
(lp3173
g397
asbag57
(g78
g59
NtRp3174
(dp3175
g62
(dp3176
g89
g90
ssg71
g3166
sg64
(lp3177
S':'
asbag57
(g78
g59
NtRp3178
(dp3179
g62
(dp3180
sg71
g3166
sg64
(lp3181
g57
(g58
g59
NtRp3182
(dp3183
g62
(dp3184
g70
I3
ssg71
g3178
sg64
(lp3185
S''
asbasbasbag57
(g73
g59
NtRp3186
(dp3187
g62
(dp3188
sg71
g3042
sg64
(lp3189
g57
(g78
g59
NtRp3190
(dp3191
g62
(dp3192
g82
g83
ssg71
g3186
sg64
(lp3193
g418
asbag57
(g78
g59
NtRp3194
(dp3195
g62
(dp3196
g89
g90
ssg71
g3186
sg64
(lp3197
S':'
asbag57
(g78
g59
NtRp3198
(dp3199
g62
(dp3200
sg71
g3186
sg64
(lp3201
g57
(g58
g59
NtRp3202
(dp3203
g62
(dp3204
g70
I3
ssg71
g3198
sg64
(lp3205
S''
asbasbasbasbasbasbasbag57
(g73
g59
NtRp3206
(dp3207
g62
(dp3208
sg71
g234
sg64
(lp3209
g57
(g78
g59
NtRp3210
(dp3211
g62
(dp3212
g82
g83
ssg71
g3206
sg64
(lp3213
S'session_id_redditclone'
p3214
asbag57
(g78
g59
NtRp3215
(dp3216
g62
(dp3217
g89
g90
ssg71
g3206
sg64
(lp3218
S':'
asbag57
(g78
g59
NtRp3219
(dp3220
g62
(dp3221
sg71
g3206
sg64
(lp3222
g57
(g58
g59
NtRp3223
(dp3224
g62
(dp3225
g70
I4
ssg71
g3219
sg64
(lp3226
g57
(g66
g59
NtRp3227
(dp3228
g62
(dp3229
g70
I3
ssg71
Nsg64
(lp3230
g57
(g73
g59
NtRp3231
(dp3232
g62
(dp3233
sg71
g3227
sg64
(lp3234
g57
(g78
g59
NtRp3235
(dp3236
g62
(dp3237
g82
g83
ssg71
g3231
sg64
(lp3238
g271
asbag57
(g78
g59
NtRp3239
(dp3240
g62
(dp3241
g89
g90
ssg71
g3231
sg64
(lp3242
S':'
asbag57
(g78
g59
NtRp3243
(dp3244
g62
(dp3245
sg71
g3231
sg64
(lp3246
g57
(g58
g59
NtRp3247
(dp3248
g62
(dp3249
g70
I3
ssg71
g3243
sg64
(lp3250
S''
asbasbasbag57
(g73
g59
NtRp3251
(dp3252
g62
(dp3253
sg71
g3227
sg64
(lp3254
g57
(g78
g59
NtRp3255
(dp3256
g62
(dp3257
g82
g83
ssg71
g3251
sg64
(lp3258
g292
asbag57
(g78
g59
NtRp3259
(dp3260
g62
(dp3261
g89
g90
ssg71
g3251
sg64
(lp3262
S':'
asbag57
(g78
g59
NtRp3263
(dp3264
g62
(dp3265
sg71
g3251
sg64
(lp3266
g57
(g58
g59
NtRp3267
(dp3268
g62
(dp3269
g70
I3
ssg71
g3263
sg64
(lp3270
S''
asbasbasbag57
(g73
g59
NtRp3271
(dp3272
g62
(dp3273
sg71
g3227
sg64
(lp3274
g57
(g78
g59
NtRp3275
(dp3276
g62
(dp3277
g82
g83
ssg71
g3271
sg64
(lp3278
g313
asbag57
(g78
g59
NtRp3279
(dp3280
g62
(dp3281
g89
g90
ssg71
g3271
sg64
(lp3282
S':'
asbag57
(g78
g59
NtRp3283
(dp3284
g62
(dp3285
sg71
g3271
sg64
(lp3286
g57
(g58
g59
NtRp3287
(dp3288
g62
(dp3289
g70
I3
ssg71
g3283
sg64
(lp3290
S''
asbasbasbag57
(g73
g59
NtRp3291
(dp3292
g62
(dp3293
sg71
g3227
sg64
(lp3294
g57
(g78
g59
NtRp3295
(dp3296
g62
(dp3297
g82
g83
ssg71
g3291
sg64
(lp3298
g334
asbag57
(g78
g59
NtRp3299
(dp3300
g62
(dp3301
g89
g90
ssg71
g3291
sg64
(lp3302
S':'
asbag57
(g78
g59
NtRp3303
(dp3304
g62
(dp3305
sg71
g3291
sg64
(lp3306
g57
(g58
g59
NtRp3307
(dp3308
g62
(dp3309
g70
I3
ssg71
g3303
sg64
(lp3310
S''
asbasbasbag57
(g73
g59
NtRp3311
(dp3312
g62
(dp3313
sg71
g3227
sg64
(lp3314
g57
(g78
g59
NtRp3315
(dp3316
g62
(dp3317
g82
g83
ssg71
g3311
sg64
(lp3318
g355
asbag57
(g78
g59
NtRp3319
(dp3320
g62
(dp3321
g89
g90
ssg71
g3311
sg64
(lp3322
S':'
asbag57
(g78
g59
NtRp3323
(dp3324
g62
(dp3325
sg71
g3311
sg64
(lp3326
g57
(g58
g59
NtRp3327
(dp3328
g62
(dp3329
g70
I3
ssg71
g3323
sg64
(lp3330
S''
asbasbasbag57
(g73
g59
NtRp3331
(dp3332
g62
(dp3333
sg71
g3227
sg64
(lp3334
g57
(g78
g59
NtRp3335
(dp3336
g62
(dp3337
g82
g83
ssg71
g3331
sg64
(lp3338
g376
asbag57
(g78
g59
NtRp3339
(dp3340
g62
(dp3341
g89
g90
ssg71
g3331
sg64
(lp3342
S':'
asbag57
(g78
g59
NtRp3343
(dp3344
g62
(dp3345
sg71
g3331
sg64
(lp3346
g57
(g58
g59
NtRp3347
(dp3348
g62
(dp3349
g70
I3
ssg71
g3343
sg64
(lp3350
S''
asbasbasbag57
(g73
g59
NtRp3351
(dp3352
g62
(dp3353
sg71
g3227
sg64
(lp3354
g57
(g78
g59
NtRp3355
(dp3356
g62
(dp3357
g82
g83
ssg71
g3351
sg64
(lp3358
g397
asbag57
(g78
g59
NtRp3359
(dp3360
g62
(dp3361
g89
g90
ssg71
g3351
sg64
(lp3362
S':'
asbag57
(g78
g59
NtRp3363
(dp3364
g62
(dp3365
sg71
g3351
sg64
(lp3366
g57
(g58
g59
NtRp3367
(dp3368
g62
(dp3369
g70
I3
ssg71
g3363
sg64
(lp3370
S''
asbasbasbag57
(g73
g59
NtRp3371
(dp3372
g62
(dp3373
sg71
g3227
sg64
(lp3374
g57
(g78
g59
NtRp3375
(dp3376
g62
(dp3377
g82
g83
ssg71
g3371
sg64
(lp3378
g418
asbag57
(g78
g59
NtRp3379
(dp3380
g62
(dp3381
g89
g90
ssg71
g3371
sg64
(lp3382
S':'
asbag57
(g78
g59
NtRp3383
(dp3384
g62
(dp3385
sg71
g3371
sg64
(lp3386
g57
(g58
g59
NtRp3387
(dp3388
g62
(dp3389
g70
I3
ssg71
g3383
sg64
(lp3390
S''
asbasbasbasbasbasbasbag57
(g73
g59
NtRp3391
(dp3392
g62
(dp3393
sg71
g234
sg64
(lp3394
g57
(g78
g59
NtRp3395
(dp3396
g62
(dp3397
g82
g83
ssg71
g3391
sg64
(lp3398
S'session_id_uploadandsharefiles'
p3399
asbag57
(g78
g59
NtRp3400
(dp3401
g62
(dp3402
g89
g90
ssg71
g3391
sg64
(lp3403
S':'
asbag57
(g78
g59
NtRp3404
(dp3405
g62
(dp3406
sg71
g3391
sg64
(lp3407
g57
(g58
g59
NtRp3408
(dp3409
g62
(dp3410
g70
I4
ssg71
g3404
sg64
(lp3411
g57
(g66
g59
NtRp3412
(dp3413
g62
(dp3414
g70
I3
ssg71
Nsg64
(lp3415
g57
(g73
g59
NtRp3416
(dp3417
g62
(dp3418
sg71
g3412
sg64
(lp3419
g57
(g78
g59
NtRp3420
(dp3421
g62
(dp3422
g82
g83
ssg71
g3416
sg64
(lp3423
g271
asbag57
(g78
g59
NtRp3424
(dp3425
g62
(dp3426
g89
g90
ssg71
g3416
sg64
(lp3427
S':'
asbag57
(g78
g59
NtRp3428
(dp3429
g62
(dp3430
sg71
g3416
sg64
(lp3431
g57
(g58
g59
NtRp3432
(dp3433
g62
(dp3434
g70
I3
ssg71
g3428
sg64
(lp3435
S''
asbasbasbag57
(g73
g59
NtRp3436
(dp3437
g62
(dp3438
sg71
g3412
sg64
(lp3439
g57
(g78
g59
NtRp3440
(dp3441
g62
(dp3442
g82
g83
ssg71
g3436
sg64
(lp3443
g292
asbag57
(g78
g59
NtRp3444
(dp3445
g62
(dp3446
g89
g90
ssg71
g3436
sg64
(lp3447
S':'
asbag57
(g78
g59
NtRp3448
(dp3449
g62
(dp3450
sg71
g3436
sg64
(lp3451
g57
(g58
g59
NtRp3452
(dp3453
g62
(dp3454
g70
I3
ssg71
g3448
sg64
(lp3455
S''
asbasbasbag57
(g73
g59
NtRp3456
(dp3457
g62
(dp3458
sg71
g3412
sg64
(lp3459
g57
(g78
g59
NtRp3460
(dp3461
g62
(dp3462
g82
g83
ssg71
g3456
sg64
(lp3463
g313
asbag57
(g78
g59
NtRp3464
(dp3465
g62
(dp3466
g89
g90
ssg71
g3456
sg64
(lp3467
S':'
asbag57
(g78
g59
NtRp3468
(dp3469
g62
(dp3470
sg71
g3456
sg64
(lp3471
g57
(g58
g59
NtRp3472
(dp3473
g62
(dp3474
g70
I3
ssg71
g3468
sg64
(lp3475
S''
asbasbasbag57
(g73
g59
NtRp3476
(dp3477
g62
(dp3478
sg71
g3412
sg64
(lp3479
g57
(g78
g59
NtRp3480
(dp3481
g62
(dp3482
g82
g83
ssg71
g3476
sg64
(lp3483
g334
asbag57
(g78
g59
NtRp3484
(dp3485
g62
(dp3486
g89
g90
ssg71
g3476
sg64
(lp3487
S':'
asbag57
(g78
g59
NtRp3488
(dp3489
g62
(dp3490
sg71
g3476
sg64
(lp3491
g57
(g58
g59
NtRp3492
(dp3493
g62
(dp3494
g70
I3
ssg71
g3488
sg64
(lp3495
S''
asbasbasbag57
(g73
g59
NtRp3496
(dp3497
g62
(dp3498
sg71
g3412
sg64
(lp3499
g57
(g78
g59
NtRp3500
(dp3501
g62
(dp3502
g82
g83
ssg71
g3496
sg64
(lp3503
g355
asbag57
(g78
g59
NtRp3504
(dp3505
g62
(dp3506
g89
g90
ssg71
g3496
sg64
(lp3507
S':'
asbag57
(g78
g59
NtRp3508
(dp3509
g62
(dp3510
sg71
g3496
sg64
(lp3511
g57
(g58
g59
NtRp3512
(dp3513
g62
(dp3514
g70
I3
ssg71
g3508
sg64
(lp3515
S''
asbasbasbag57
(g73
g59
NtRp3516
(dp3517
g62
(dp3518
sg71
g3412
sg64
(lp3519
g57
(g78
g59
NtRp3520
(dp3521
g62
(dp3522
g82
g83
ssg71
g3516
sg64
(lp3523
g376
asbag57
(g78
g59
NtRp3524
(dp3525
g62
(dp3526
g89
g90
ssg71
g3516
sg64
(lp3527
S':'
asbag57
(g78
g59
NtRp3528
(dp3529
g62
(dp3530
sg71
g3516
sg64
(lp3531
g57
(g58
g59
NtRp3532
(dp3533
g62
(dp3534
g70
I3
ssg71
g3528
sg64
(lp3535
S''
asbasbasbag57
(g73
g59
NtRp3536
(dp3537
g62
(dp3538
sg71
g3412
sg64
(lp3539
g57
(g78
g59
NtRp3540
(dp3541
g62
(dp3542
g82
g83
ssg71
g3536
sg64
(lp3543
g397
asbag57
(g78
g59
NtRp3544
(dp3545
g62
(dp3546
g89
g90
ssg71
g3536
sg64
(lp3547
S':'
asbag57
(g78
g59
NtRp3548
(dp3549
g62
(dp3550
sg71
g3536
sg64
(lp3551
g57
(g58
g59
NtRp3552
(dp3553
g62
(dp3554
g70
I3
ssg71
g3548
sg64
(lp3555
S''
asbasbasbag57
(g73
g59
NtRp3556
(dp3557
g62
(dp3558
sg71
g3412
sg64
(lp3559
g57
(g78
g59
NtRp3560
(dp3561
g62
(dp3562
g82
g83
ssg71
g3556
sg64
(lp3563
g418
asbag57
(g78
g59
NtRp3564
(dp3565
g62
(dp3566
g89
g90
ssg71
g3556
sg64
(lp3567
S':'
asbag57
(g78
g59
NtRp3568
(dp3569
g62
(dp3570
sg71
g3556
sg64
(lp3571
g57
(g58
g59
NtRp3572
(dp3573
g62
(dp3574
g70
I3
ssg71
g3568
sg64
(lp3575
S''
asbasbasbasbasbasbasbag57
(g73
g59
NtRp3576
(dp3577
g62
(dp3578
sg71
g234
sg64
(lp3579
g57
(g78
g59
NtRp3580
(dp3581
g62
(dp3582
g82
g83
ssg71
g3576
sg64
(lp3583
S'session_id_welcome'
p3584
asbag57
(g78
g59
NtRp3585
(dp3586
g62
(dp3587
g89
g90
ssg71
g3576
sg64
(lp3588
S':'
asbag57
(g78
g59
NtRp3589
(dp3590
g62
(dp3591
sg71
g3576
sg64
(lp3592
g57
(g58
g59
NtRp3593
(dp3594
g62
(dp3595
g70
I4
ssg71
g3589
sg64
(lp3596
g57
(g66
g59
NtRp3597
(dp3598
g62
(dp3599
g70
I3
ssg71
Nsg64
(lp3600
g57
(g73
g59
NtRp3601
(dp3602
g62
(dp3603
sg71
g3597
sg64
(lp3604
g57
(g78
g59
NtRp3605
(dp3606
g62
(dp3607
g82
g83
ssg71
g3601
sg64
(lp3608
g271
asbag57
(g78
g59
NtRp3609
(dp3610
g62
(dp3611
g89
g90
ssg71
g3601
sg64
(lp3612
S':'
asbag57
(g78
g59
NtRp3613
(dp3614
g62
(dp3615
sg71
g3601
sg64
(lp3616
g57
(g58
g59
NtRp3617
(dp3618
g62
(dp3619
g70
I3
ssg71
g3613
sg64
(lp3620
S''
asbasbasbag57
(g73
g59
NtRp3621
(dp3622
g62
(dp3623
sg71
g3597
sg64
(lp3624
g57
(g78
g59
NtRp3625
(dp3626
g62
(dp3627
g82
g83
ssg71
g3621
sg64
(lp3628
g292
asbag57
(g78
g59
NtRp3629
(dp3630
g62
(dp3631
g89
g90
ssg71
g3621
sg64
(lp3632
S':'
asbag57
(g78
g59
NtRp3633
(dp3634
g62
(dp3635
sg71
g3621
sg64
(lp3636
g57
(g58
g59
NtRp3637
(dp3638
g62
(dp3639
g70
I3
ssg71
g3633
sg64
(lp3640
S''
asbasbasbag57
(g73
g59
NtRp3641
(dp3642
g62
(dp3643
sg71
g3597
sg64
(lp3644
g57
(g78
g59
NtRp3645
(dp3646
g62
(dp3647
g82
g83
ssg71
g3641
sg64
(lp3648
g313
asbag57
(g78
g59
NtRp3649
(dp3650
g62
(dp3651
g89
g90
ssg71
g3641
sg64
(lp3652
S':'
asbag57
(g78
g59
NtRp3653
(dp3654
g62
(dp3655
sg71
g3641
sg64
(lp3656
g57
(g58
g59
NtRp3657
(dp3658
g62
(dp3659
g70
I3
ssg71
g3653
sg64
(lp3660
S''
asbasbasbag57
(g73
g59
NtRp3661
(dp3662
g62
(dp3663
sg71
g3597
sg64
(lp3664
g57
(g78
g59
NtRp3665
(dp3666
g62
(dp3667
g82
g83
ssg71
g3661
sg64
(lp3668
g334
asbag57
(g78
g59
NtRp3669
(dp3670
g62
(dp3671
g89
g90
ssg71
g3661
sg64
(lp3672
S':'
asbag57
(g78
g59
NtRp3673
(dp3674
g62
(dp3675
sg71
g3661
sg64
(lp3676
g57
(g58
g59
NtRp3677
(dp3678
g62
(dp3679
g70
I3
ssg71
g3673
sg64
(lp3680
S''
asbasbasbag57
(g73
g59
NtRp3681
(dp3682
g62
(dp3683
sg71
g3597
sg64
(lp3684
g57
(g78
g59
NtRp3685
(dp3686
g62
(dp3687
g82
g83
ssg71
g3681
sg64
(lp3688
g355
asbag57
(g78
g59
NtRp3689
(dp3690
g62
(dp3691
g89
g90
ssg71
g3681
sg64
(lp3692
S':'
asbag57
(g78
g59
NtRp3693
(dp3694
g62
(dp3695
sg71
g3681
sg64
(lp3696
g57
(g58
g59
NtRp3697
(dp3698
g62
(dp3699
g70
I3
ssg71
g3693
sg64
(lp3700
S''
asbasbasbag57
(g73
g59
NtRp3701
(dp3702
g62
(dp3703
sg71
g3597
sg64
(lp3704
g57
(g78
g59
NtRp3705
(dp3706
g62
(dp3707
g82
g83
ssg71
g3701
sg64
(lp3708
g376
asbag57
(g78
g59
NtRp3709
(dp3710
g62
(dp3711
g89
g90
ssg71
g3701
sg64
(lp3712
S':'
asbag57
(g78
g59
NtRp3713
(dp3714
g62
(dp3715
sg71
g3701
sg64
(lp3716
g57
(g58
g59
NtRp3717
(dp3718
g62
(dp3719
g70
I3
ssg71
g3713
sg64
(lp3720
S''
asbasbasbag57
(g73
g59
NtRp3721
(dp3722
g62
(dp3723
sg71
g3597
sg64
(lp3724
g57
(g78
g59
NtRp3725
(dp3726
g62
(dp3727
g82
g83
ssg71
g3721
sg64
(lp3728
g397
asbag57
(g78
g59
NtRp3729
(dp3730
g62
(dp3731
g89
g90
ssg71
g3721
sg64
(lp3732
S':'
asbag57
(g78
g59
NtRp3733
(dp3734
g62
(dp3735
sg71
g3721
sg64
(lp3736
g57
(g58
g59
NtRp3737
(dp3738
g62
(dp3739
g70
I3
ssg71
g3733
sg64
(lp3740
S''
asbasbasbag57
(g73
g59
NtRp3741
(dp3742
g62
(dp3743
sg71
g3597
sg64
(lp3744
g57
(g78
g59
NtRp3745
(dp3746
g62
(dp3747
g82
g83
ssg71
g3741
sg64
(lp3748
g418
asbag57
(g78
g59
NtRp3749
(dp3750
g62
(dp3751
g89
g90
ssg71
g3741
sg64
(lp3752
S':'
asbag57
(g78
g59
NtRp3753
(dp3754
g62
(dp3755
sg71
g3741
sg64
(lp3756
g57
(g58
g59
NtRp3757
(dp3758
g62
(dp3759
g70
I3
ssg71
g3753
sg64
(lp3760
S''
asbasbasbasbasbasbasbasbasbasbasbag57
(g73
g59
NtRp3761
(dp3762
g62
(dp3763
sg71
g67
sg64
(lp3764
g57
(g78
g59
NtRp3765
(dp3766
g62
(dp3767
g82
g83
ssg71
g3761
sg64
(lp3768
S'env'
p3769
asbag57
(g78
g59
NtRp3770
(dp3771
g62
(dp3772
g89
g90
ssg71
g3761
sg64
(lp3773
S':'
asbag57
(g78
g59
NtRp3774
(dp3775
g62
(dp3776
sg71
g3761
sg64
(lp3777
g57
(g58
g59
NtRp3778
(dp3779
g62
(dp3780
g70
I5
ssg71
g3774
sg64
(lp3781
g57
(g66
g59
NtRp3782
(dp3783
g62
(dp3784
g70
I4
ssg71
Nsg64
(lp3785
g57
(g73
g59
NtRp3786
(dp3787
g62
(dp3788
sg71
g3782
sg64
(lp3789
g57
(g78
g59
NtRp3790
(dp3791
g62
(dp3792
g82
g83
ssg71
g3786
sg64
(lp3793
S'app_folders'
p3794
asbag57
(g78
g59
NtRp3795
(dp3796
g62
(dp3797
g89
g90
ssg71
g3786
sg64
(lp3798
S':'
asbag57
(g78
g59
NtRp3799
(dp3800
g62
(dp3801
sg71
g3786
sg64
(lp3802
g57
(g58
g59
NtRp3803
(dp3804
g62
(dp3805
g70
I4
ssg71
g3799
sg64
(lp3806
S"set(['/home/shantanu/web2py/applications/ImageGallery/', '/home/shantanu/web2py/applications/FacebookConnectExample/', '/home/shantanu/web2py/applications/UploadAndShareFiles/', '/home/shantanu/web2py/applications/FileManager/', '/home/shantanu/web2py/applications/welcome/', '/home/shantanu/web2py/applications/admin/', '/home/shantanu/web2py/applications/EStoreExample/', '/home/shantanu/web2py/applications/RedditClone/', '/home/shantanu/web2py/applications/BingApi/', '/home/shantanu/web2py/applications/CeleryIntegrationExample/', '/home/shantanu/web2py/applications/Appliances/', '/home/shantanu/web2py/applications/sp/', '/home/shantanu/web2py/applications/OnlineMagazine/', '/home/shantanu/web2py/applications/FacebookExample/', '/home/shantanu/web2py/applications/BitcoinExample/', '/home/shantanu/web2py/applications/FacebookClone/', '/home/shantanu/web2py/applications/AjaxSpreadsheet/', '/home/shantanu/web2py/applications/CarSales/', '/home/shantanu/web2py/applications/FileTreeBrowser/', '/home/shantanu/web2py/applications/ManageContacts/', '/home/shantanu/web2py/applications/ContactForms/', '/home/shantanu/web2py/applications/EmailContactForm/'])"
p3807
asbasbasbag57
(g73
g59
NtRp3808
(dp3809
g62
(dp3810
sg71
g3782
sg64
(lp3811
g57
(g78
g59
NtRp3812
(dp3813
g62
(dp3814
g82
g83
ssg71
g3808
sg64
(lp3815
S'applications_parent'
p3816
asbag57
(g78
g59
NtRp3817
(dp3818
g62
(dp3819
g89
g90
ssg71
g3808
sg64
(lp3820
S':'
asbag57
(g78
g59
NtRp3821
(dp3822
g62
(dp3823
sg71
g3808
sg64
(lp3824
g57
(g58
g59
NtRp3825
(dp3826
g62
(dp3827
g70
I4
ssg71
g3821
sg64
(lp3828
S'/home/shantanu/web2py'
p3829
asbasbasbag57
(g73
g59
NtRp3830
(dp3831
g62
(dp3832
sg71
g3782
sg64
(lp3833
g57
(g78
g59
NtRp3834
(dp3835
g62
(dp3836
g82
g83
ssg71
g3830
sg64
(lp3837
S'cmd_args'
p3838
asbag57
(g78
g59
NtRp3839
(dp3840
g62
(dp3841
g89
g90
ssg71
g3830
sg64
(lp3842
S':'
asbag57
(g78
g59
NtRp3843
(dp3844
g62
(dp3845
sg71
g3830
sg64
(lp3846
g57
(g58
g59
NtRp3847
(dp3848
g62
(dp3849
g70
I4
ssg71
g3843
sg64
(lp3850
g57
(g66
g59
NtRp3851
(dp3852
g62
(dp3853
g70
I3
ssg71
Nsg64
(lp3854
sbasbasbasbag57
(g73
g59
NtRp3855
(dp3856
g62
(dp3857
sg71
g3782
sg64
(lp3858
g57
(g78
g59
NtRp3859
(dp3860
g62
(dp3861
g82
g83
ssg71
g3855
sg64
(lp3862
S'cmd_options'
p3863
asbag57
(g78
g59
NtRp3864
(dp3865
g62
(dp3866
g89
g90
ssg71
g3855
sg64
(lp3867
S':'
asbag57
(g78
g59
NtRp3868
(dp3869
g62
(dp3870
sg71
g3855
sg64
(lp3871
g57
(g58
g59
NtRp3872
(dp3873
g62
(dp3874
g70
I4
ssg71
g3868
sg64
(lp3875
S"<Values at 0x1894440: {'verbose': False, 'ip': '127.0.0.1', 'shutdown_timeout': 5, 'taskbar': False, 'nocron': False, 'pid_filename': 'httpserver.pid', 'maxthreads': None, 'softcron': False, 'server_name': 'shantanu-HP-550', 'bpython': False, 'nogui': False, 'port': 8000, 'extcron': False, 'debuglevel': 30, 'test': None, 'folder': '/home/shantanu/web2py', 'config': '', 'import_models': False, 'winservice': '', 'shell': None, 'run': '', 'log_filename': 'httpserver.log', 'args': [''], 'socket_timeout': 5, 'ssl_ca_certificate': None, 'scheduler': None, 'profiler_filename': None, 'ssl_private_key': '', 'password': '<ask>', 'request_queue_size': 5, 'ssl_certificate': '', 'cronjob': False, 'numthreads': None, 'quiet': False, 'interfaces': None, 'minthreads': None, 'timeout': 10, 'plain': False, 'nobanner': False}>"
p3876
asbasbasbag57
(g73
g59
NtRp3877
(dp3878
g62
(dp3879
sg71
g3782
sg64
(lp3880
g57
(g78
g59
NtRp3881
(dp3882
g62
(dp3883
g82
g83
ssg71
g3877
sg64
(lp3884
S'content_length'
p3885
asbag57
(g78
g59
NtRp3886
(dp3887
g62
(dp3888
g89
g90
ssg71
g3877
sg64
(lp3889
S':'
asbag57
(g78
g59
NtRp3890
(dp3891
g62
(dp3892
sg71
g3877
sg64
(lp3893
g57
(g58
g59
NtRp3894
(dp3895
g62
(dp3896
g70
I4
ssg71
g3890
sg64
(lp3897
S'53'
p3898
asbasbasbag57
(g73
g59
NtRp3899
(dp3900
g62
(dp3901
sg71
g3782
sg64
(lp3902
g57
(g78
g59
NtRp3903
(dp3904
g62
(dp3905
g82
g83
ssg71
g3899
sg64
(lp3906
S'content_type'
p3907
asbag57
(g78
g59
NtRp3908
(dp3909
g62
(dp3910
g89
g90
ssg71
g3899
sg64
(lp3911
S':'
asbag57
(g78
g59
NtRp3912
(dp3913
g62
(dp3914
sg71
g3899
sg64
(lp3915
g57
(g58
g59
NtRp3916
(dp3917
g62
(dp3918
g70
I4
ssg71
g3912
sg64
(lp3919
S'application/x-www-form-urlencoded'
p3920
asbasbasbag57
(g73
g59
NtRp3921
(dp3922
g62
(dp3923
sg71
g3782
sg64
(lp3924
g57
(g78
g59
NtRp3925
(dp3926
g62
(dp3927
g82
g83
ssg71
g3921
sg64
(lp3928
S'db_sessions'
p3929
asbag57
(g78
g59
NtRp3930
(dp3931
g62
(dp3932
g89
g90
ssg71
g3921
sg64
(lp3933
S':'
asbag57
(g78
g59
NtRp3934
(dp3935
g62
(dp3936
sg71
g3921
sg64
(lp3937
g57
(g58
g59
NtRp3938
(dp3939
g62
(dp3940
g70
I4
ssg71
g3934
sg64
(lp3941
S'set([])'
p3942
asbasbasbag57
(g73
g59
NtRp3943
(dp3944
g62
(dp3945
sg71
g3782
sg64
(lp3946
g57
(g78
g59
NtRp3947
(dp3948
g62
(dp3949
g82
g83
ssg71
g3943
sg64
(lp3950
S'debugging'
p3951
asbag57
(g78
g59
NtRp3952
(dp3953
g62
(dp3954
g89
g90
ssg71
g3943
sg64
(lp3955
S':'
asbag57
(g78
g59
NtRp3956
(dp3957
g62
(dp3958
sg71
g3943
sg64
(lp3959
g57
(g58
g59
NtRp3960
(dp3961
g62
(dp3962
g70
I4
ssg71
g3956
sg64
(lp3963
S'False'
p3964
asbasbasbag57
(g73
g59
NtRp3965
(dp3966
g62
(dp3967
sg71
g3782
sg64
(lp3968
g57
(g78
g59
NtRp3969
(dp3970
g62
(dp3971
g82
g83
ssg71
g3965
sg64
(lp3972
S'gluon_parent'
p3973
asbag57
(g78
g59
NtRp3974
(dp3975
g62
(dp3976
g89
g90
ssg71
g3965
sg64
(lp3977
S':'
asbag57
(g78
g59
NtRp3978
(dp3979
g62
(dp3980
sg71
g3965
sg64
(lp3981
g57
(g58
g59
NtRp3982
(dp3983
g62
(dp3984
g70
I4
ssg71
g3978
sg64
(lp3985
S'/usr/share/web2py'
p3986
asbasbasbag57
(g73
g59
NtRp3987
(dp3988
g62
(dp3989
sg71
g3782
sg64
(lp3990
g57
(g78
g59
NtRp3991
(dp3992
g62
(dp3993
g82
g83
ssg71
g3987
sg64
(lp3994
S'http_accept'
p3995
asbag57
(g78
g59
NtRp3996
(dp3997
g62
(dp3998
g89
g90
ssg71
g3987
sg64
(lp3999
S':'
asbag57
(g78
g59
NtRp4000
(dp4001
g62
(dp4002
sg71
g3987
sg64
(lp4003
g57
(g58
g59
NtRp4004
(dp4005
g62
(dp4006
g70
I4
ssg71
g4000
sg64
(lp4007
S'*/*'
p4008
asbasbasbag57
(g73
g59
NtRp4009
(dp4010
g62
(dp4011
sg71
g3782
sg64
(lp4012
g57
(g78
g59
NtRp4013
(dp4014
g62
(dp4015
g82
g83
ssg71
g4009
sg64
(lp4016
S'http_accept_encoding'
p4017
asbag57
(g78
g59
NtRp4018
(dp4019
g62
(dp4020
g89
g90
ssg71
g4009
sg64
(lp4021
S':'
asbag57
(g78
g59
NtRp4022
(dp4023
g62
(dp4024
sg71
g4009
sg64
(lp4025
g57
(g58
g59
NtRp4026
(dp4027
g62
(dp4028
g70
I4
ssg71
g4022
sg64
(lp4029
S'gzip,deflate,sdch'
p4030
asbasbasbag57
(g73
g59
NtRp4031
(dp4032
g62
(dp4033
sg71
g3782
sg64
(lp4034
g57
(g78
g59
NtRp4035
(dp4036
g62
(dp4037
g82
g83
ssg71
g4031
sg64
(lp4038
S'http_accept_language'
p4039
asbag57
(g78
g59
NtRp4040
(dp4041
g62
(dp4042
g89
g90
ssg71
g4031
sg64
(lp4043
S':'
asbag57
(g78
g59
NtRp4044
(dp4045
g62
(dp4046
sg71
g4031
sg64
(lp4047
g57
(g58
g59
NtRp4048
(dp4049
g62
(dp4050
g70
I4
ssg71
g4044
sg64
(lp4051
S'en-US,en;q=0.8'
p4052
asbasbasbag57
(g73
g59
NtRp4053
(dp4054
g62
(dp4055
sg71
g3782
sg64
(lp4056
g57
(g78
g59
NtRp4057
(dp4058
g62
(dp4059
g82
g83
ssg71
g4053
sg64
(lp4060
S'http_connection'
p4061
asbag57
(g78
g59
NtRp4062
(dp4063
g62
(dp4064
g89
g90
ssg71
g4053
sg64
(lp4065
S':'
asbag57
(g78
g59
NtRp4066
(dp4067
g62
(dp4068
sg71
g4053
sg64
(lp4069
g57
(g58
g59
NtRp4070
(dp4071
g62
(dp4072
g70
I4
ssg71
g4066
sg64
(lp4073
S'keep-alive'
p4074
asbasbasbag57
(g73
g59
NtRp4075
(dp4076
g62
(dp4077
sg71
g3782
sg64
(lp4078
g57
(g78
g59
NtRp4079
(dp4080
g62
(dp4081
g82
g83
ssg71
g4075
sg64
(lp4082
S'http_content_length'
p4083
asbag57
(g78
g59
NtRp4084
(dp4085
g62
(dp4086
g89
g90
ssg71
g4075
sg64
(lp4087
S':'
asbag57
(g78
g59
NtRp4088
(dp4089
g62
(dp4090
sg71
g4075
sg64
(lp4091
g57
(g58
g59
NtRp4092
(dp4093
g62
(dp4094
g70
I4
ssg71
g4088
sg64
(lp4095
g3898
asbasbasbag57
(g73
g59
NtRp4096
(dp4097
g62
(dp4098
sg71
g3782
sg64
(lp4099
g57
(g78
g59
NtRp4100
(dp4101
g62
(dp4102
g82
g83
ssg71
g4096
sg64
(lp4103
S'http_content_type'
p4104
asbag57
(g78
g59
NtRp4105
(dp4106
g62
(dp4107
g89
g90
ssg71
g4096
sg64
(lp4108
S':'
asbag57
(g78
g59
NtRp4109
(dp4110
g62
(dp4111
sg71
g4096
sg64
(lp4112
g57
(g58
g59
NtRp4113
(dp4114
g62
(dp4115
g70
I4
ssg71
g4109
sg64
(lp4116
g3920
asbasbasbag57
(g73
g59
NtRp4117
(dp4118
g62
(dp4119
sg71
g3782
sg64
(lp4120
g57
(g78
g59
NtRp4121
(dp4122
g62
(dp4123
g82
g83
ssg71
g4117
sg64
(lp4124
S'http_cookie'
p4125
asbag57
(g78
g59
NtRp4126
(dp4127
g62
(dp4128
g89
g90
ssg71
g4117
sg64
(lp4129
S':'
asbag57
(g78
g59
NtRp4130
(dp4131
g62
(dp4132
sg71
g4117
sg64
(lp4133
g57
(g58
g59
NtRp4134
(dp4135
g62
(dp4136
g70
I4
ssg71
g4130
sg64
(lp4137
S'session_id_bitcoinexample=127.0.0.1-d9b8f42f-7a26-430c-b59b-fc62411afef5; session_id_celeryintegrationexample=127.0.0.1-380ebcfd-f2b3-43c8-a15e-708208a0f1fb; session_id_ajaxspreadsheet=127.0.0.1-3bdb66ed-c5b5-405a-954b-e0c2bd9ba718; session_id_appliances=127.0.0.1-27781494-b51f-4abd-93d7-0451cb0d096a; session_id_bingapi=127.0.0.1-33940b33-d683-42c8-9b61-745c10f243e6; session_id_carsales=127.0.0.1-5e69f57c-8b82-438e-bcd9-ab363a915c5f; session_id_emailcontactform=127.0.0.1-9ca3e3b5-e9ae-4d7f-a82d-1b6b290b214c; session_id_estoreexample=127.0.0.1-ef9356db-9363-4f82-8628-16b60f2a511a; session_id_welcome=127.0.0.1-c67312fd-16f3-45a0-a613-765cbe985e6f; session_id_admin=127.0.0.1-7cc97f0e-62f6-472c-a9ad-d964cc4e308b; session_id_facebookclone=127.0.0.1-425f16a8-74ab-4e36-b14c-858c9089dbba; session_id_uploadandsharefiles=127.0.0.1-ae251dca-cd5d-422a-b1f2-bd87eb9d2b3a; session_id_onlinemagazine=127.0.0.1-77265638-a926-4826-9a7d-c37dd26320a4; session_id_managecontacts=127.0.0.1-c7909728-b5ce-4cee-b44f-bd76b232fd77; session_id_imagegallery=127.0.0.1-7c5acd5e-eb8c-438c-a67f-ad2c1044da99; session_id_filetreebrowser=127.0.0.1-07336114-4769-49c8-ae10-6ebfefb3b3f9; session_id_facebookconnectexample=127.0.0.1-c1ed7a7a-a405-4829-9a84-24df45d4735a; session_id_redditclone=127.0.0.1-01e20f41-de71-4410-acd9-3e11e242e7cb; session_id_filemanager=127.0.0.1-dcfc54dd-ea1c-43a7-a4bd-a09e30911b39'
p4138
asbasbasbag57
(g73
g59
NtRp4139
(dp4140
g62
(dp4141
sg71
g3782
sg64
(lp4142
g57
(g78
g59
NtRp4143
(dp4144
g62
(dp4145
g82
g83
ssg71
g4139
sg64
(lp4146
S'http_host'
p4147
asbag57
(g78
g59
NtRp4148
(dp4149
g62
(dp4150
g89
g90
ssg71
g4139
sg64
(lp4151
S':'
asbag57
(g78
g59
NtRp4152
(dp4153
g62
(dp4154
sg71
g4139
sg64
(lp4155
g57
(g58
g59
NtRp4156
(dp4157
g62
(dp4158
g70
I4
ssg71
g4152
sg64
(lp4159
S'127.0.0.1:8000'
p4160
asbasbasbag57
(g73
g59
NtRp4161
(dp4162
g62
(dp4163
sg71
g3782
sg64
(lp4164
g57
(g78
g59
NtRp4165
(dp4166
g62
(dp4167
g82
g83
ssg71
g4161
sg64
(lp4168
S'http_origin'
p4169
asbag57
(g78
g59
NtRp4170
(dp4171
g62
(dp4172
g89
g90
ssg71
g4161
sg64
(lp4173
S':'
asbag57
(g78
g59
NtRp4174
(dp4175
g62
(dp4176
sg71
g4161
sg64
(lp4177
g57
(g58
g59
NtRp4178
(dp4179
g62
(dp4180
g70
I4
ssg71
g4174
sg64
(lp4181
S'http://127.0.0.1:8000'
p4182
asbasbasbag57
(g73
g59
NtRp4183
(dp4184
g62
(dp4185
sg71
g3782
sg64
(lp4186
g57
(g78
g59
NtRp4187
(dp4188
g62
(dp4189
g82
g83
ssg71
g4183
sg64
(lp4190
S'http_referer'
p4191
asbag57
(g78
g59
NtRp4192
(dp4193
g62
(dp4194
g89
g90
ssg71
g4183
sg64
(lp4195
S':'
asbag57
(g78
g59
NtRp4196
(dp4197
g62
(dp4198
sg71
g4183
sg64
(lp4199
g57
(g58
g59
NtRp4200
(dp4201
g62
(dp4202
g70
I4
ssg71
g4196
sg64
(lp4203
S'http://127.0.0.1:8000/FileManager/default/index'
p4204
asbasbasbag57
(g73
g59
NtRp4205
(dp4206
g62
(dp4207
sg71
g3782
sg64
(lp4208
g57
(g78
g59
NtRp4209
(dp4210
g62
(dp4211
g82
g83
ssg71
g4205
sg64
(lp4212
S'http_user_agent'
p4213
asbag57
(g78
g59
NtRp4214
(dp4215
g62
(dp4216
g89
g90
ssg71
g4205
sg64
(lp4217
S':'
asbag57
(g78
g59
NtRp4218
(dp4219
g62
(dp4220
sg71
g4205
sg64
(lp4221
g57
(g58
g59
NtRp4222
(dp4223
g62
(dp4224
g70
I4
ssg71
g4218
sg64
(lp4225
S'Mozilla/5.0 (X11; Linux x86_64) AppleWebKit/537.36 (KHTML, like Gecko) Ubuntu Chromium/32.0.1700.107 Chrome/32.0.1700.107 Safari/537.36'
p4226
asbasbasbag57
(g73
g59
NtRp4227
(dp4228
g62
(dp4229
sg71
g3782
sg64
(lp4230
g57
(g78
g59
NtRp4231
(dp4232
g62
(dp4233
g82
g83
ssg71
g4227
sg64
(lp4234
S'http_x_requested_with'
p4235
asbag57
(g78
g59
NtRp4236
(dp4237
g62
(dp4238
g89
g90
ssg71
g4227
sg64
(lp4239
S':'
asbag57
(g78
g59
NtRp4240
(dp4241
g62
(dp4242
sg71
g4227
sg64
(lp4243
g57
(g58
g59
NtRp4244
(dp4245
g62
(dp4246
g70
I4
ssg71
g4240
sg64
(lp4247
S'XMLHttpRequest'
p4248
asbasbasbag57
(g73
g59
NtRp4249
(dp4250
g62
(dp4251
sg71
g3782
sg64
(lp4252
g57
(g78
g59
NtRp4253
(dp4254
g62
(dp4255
g82
g83
ssg71
g4249
sg64
(lp4256
S'is_jython'
p4257
asbag57
(g78
g59
NtRp4258
(dp4259
g62
(dp4260
g89
g90
ssg71
g4249
sg64
(lp4261
S':'
asbag57
(g78
g59
NtRp4262
(dp4263
g62
(dp4264
sg71
g4249
sg64
(lp4265
g57
(g58
g59
NtRp4266
(dp4267
g62
(dp4268
g70
I4
ssg71
g4262
sg64
(lp4269
g3964
asbasbasbag57
(g73
g59
NtRp4270
(dp4271
g62
(dp4272
sg71
g3782
sg64
(lp4273
g57
(g78
g59
NtRp4274
(dp4275
g62
(dp4276
g82
g83
ssg71
g4270
sg64
(lp4277
S'is_pypy'
p4278
asbag57
(g78
g59
NtRp4279
(dp4280
g62
(dp4281
g89
g90
ssg71
g4270
sg64
(lp4282
S':'
asbag57
(g78
g59
NtRp4283
(dp4284
g62
(dp4285
sg71
g4270
sg64
(lp4286
g57
(g58
g59
NtRp4287
(dp4288
g62
(dp4289
g70
I4
ssg71
g4283
sg64
(lp4290
g3964
asbasbasbag57
(g73
g59
NtRp4291
(dp4292
g62
(dp4293
sg71
g3782
sg64
(lp4294
g57
(g78
g59
NtRp4295
(dp4296
g62
(dp4297
g82
g83
ssg71
g4291
sg64
(lp4298
S'path_info'
p4299
asbag57
(g78
g59
NtRp4300
(dp4301
g62
(dp4302
g89
g90
ssg71
g4291
sg64
(lp4303
S':'
asbag57
(g78
g59
NtRp4304
(dp4305
g62
(dp4306
sg71
g4291
sg64
(lp4307
g57
(g58
g59
NtRp4308
(dp4309
g62
(dp4310
g70
I4
ssg71
g4304
sg64
(lp4311
S'/FileManager/default/add'
p4312
asbasbasbag57
(g73
g59
NtRp4313
(dp4314
g62
(dp4315
sg71
g3782
sg64
(lp4316
g57
(g78
g59
NtRp4317
(dp4318
g62
(dp4319
g82
g83
ssg71
g4313
sg64
(lp4320
S'query_string'
p4321
asbag57
(g78
g59
NtRp4322
(dp4323
g62
(dp4324
g89
g90
ssg71
g4313
sg64
(lp4325
S':'
asbag57
(g78
g59
NtRp4326
(dp4327
g62
(dp4328
sg71
g4313
sg64
(lp4329
g57
(g58
g59
NtRp4330
(dp4331
g62
(dp4332
g70
I4
ssg71
g4326
sg64
(lp4333
S''
asbasbasbag57
(g73
g59
NtRp4334
(dp4335
g62
(dp4336
sg71
g3782
sg64
(lp4337
g57
(g78
g59
NtRp4338
(dp4339
g62
(dp4340
g82
g83
ssg71
g4334
sg64
(lp4341
S'remote_addr'
p4342
asbag57
(g78
g59
NtRp4343
(dp4344
g62
(dp4345
g89
g90
ssg71
g4334
sg64
(lp4346
S':'
asbag57
(g78
g59
NtRp4347
(dp4348
g62
(dp4349
sg71
g4334
sg64
(lp4350
g57
(g58
g59
NtRp4351
(dp4352
g62
(dp4353
g70
I4
ssg71
g4347
sg64
(lp4354
g190
asbasbasbag57
(g73
g59
NtRp4355
(dp4356
g62
(dp4357
sg71
g3782
sg64
(lp4358
g57
(g78
g59
NtRp4359
(dp4360
g62
(dp4361
g82
g83
ssg71
g4355
sg64
(lp4362
S'remote_port'
p4363
asbag57
(g78
g59
NtRp4364
(dp4365
g62
(dp4366
g89
g90
ssg71
g4355
sg64
(lp4367
S':'
asbag57
(g78
g59
NtRp4368
(dp4369
g62
(dp4370
sg71
g4355
sg64
(lp4371
g57
(g58
g59
NtRp4372
(dp4373
g62
(dp4374
g70
I4
ssg71
g4368
sg64
(lp4375
S'41570'
p4376
asbasbasbag57
(g73
g59
NtRp4377
(dp4378
g62
(dp4379
sg71
g3782
sg64
(lp4380
g57
(g78
g59
NtRp4381
(dp4382
g62
(dp4383
g82
g83
ssg71
g4377
sg64
(lp4384
S'request_method'
p4385
asbag57
(g78
g59
NtRp4386
(dp4387
g62
(dp4388
g89
g90
ssg71
g4377
sg64
(lp4389
S':'
asbag57
(g78
g59
NtRp4390
(dp4391
g62
(dp4392
sg71
g4377
sg64
(lp4393
g57
(g58
g59
NtRp4394
(dp4395
g62
(dp4396
g70
I4
ssg71
g4390
sg64
(lp4397
S'POST'
p4398
asbasbasbag57
(g73
g59
NtRp4399
(dp4400
g62
(dp4401
sg71
g3782
sg64
(lp4402
g57
(g78
g59
NtRp4403
(dp4404
g62
(dp4405
g82
g83
ssg71
g4399
sg64
(lp4406
S'script_name'
p4407
asbag57
(g78
g59
NtRp4408
(dp4409
g62
(dp4410
g89
g90
ssg71
g4399
sg64
(lp4411
S':'
asbag57
(g78
g59
NtRp4412
(dp4413
g62
(dp4414
sg71
g4399
sg64
(lp4415
g57
(g58
g59
NtRp4416
(dp4417
g62
(dp4418
g70
I4
ssg71
g4412
sg64
(lp4419
S''
asbasbasbag57
(g73
g59
NtRp4420
(dp4421
g62
(dp4422
sg71
g3782
sg64
(lp4423
g57
(g78
g59
NtRp4424
(dp4425
g62
(dp4426
g82
g83
ssg71
g4420
sg64
(lp4427
S'server_name'
p4428
asbag57
(g78
g59
NtRp4429
(dp4430
g62
(dp4431
g89
g90
ssg71
g4420
sg64
(lp4432
S':'
asbag57
(g78
g59
NtRp4433
(dp4434
g62
(dp4435
sg71
g4420
sg64
(lp4436
g57
(g58
g59
NtRp4437
(dp4438
g62
(dp4439
g70
I4
ssg71
g4433
sg64
(lp4440
S'shantanu-HP-550'
p4441
asbasbasbag57
(g73
g59
NtRp4442
(dp4443
g62
(dp4444
sg71
g3782
sg64
(lp4445
g57
(g78
g59
NtRp4446
(dp4447
g62
(dp4448
g82
g83
ssg71
g4442
sg64
(lp4449
S'server_port'
p4450
asbag57
(g78
g59
NtRp4451
(dp4452
g62
(dp4453
g89
g90
ssg71
g4442
sg64
(lp4454
S':'
asbag57
(g78
g59
NtRp4455
(dp4456
g62
(dp4457
sg71
g4442
sg64
(lp4458
g57
(g58
g59
NtRp4459
(dp4460
g62
(dp4461
g70
I4
ssg71
g4455
sg64
(lp4462
S'8000'
p4463
asbasbasbag57
(g73
g59
NtRp4464
(dp4465
g62
(dp4466
sg71
g3782
sg64
(lp4467
g57
(g78
g59
NtRp4468
(dp4469
g62
(dp4470
g82
g83
ssg71
g4464
sg64
(lp4471
S'server_protocol'
p4472
asbag57
(g78
g59
NtRp4473
(dp4474
g62
(dp4475
g89
g90
ssg71
g4464
sg64
(lp4476
S':'
asbag57
(g78
g59
NtRp4477
(dp4478
g62
(dp4479
sg71
g4464
sg64
(lp4480
g57
(g58
g59
NtRp4481
(dp4482
g62
(dp4483
g70
I4
ssg71
g4477
sg64
(lp4484
S'HTTP/1.1'
p4485
asbasbasbag57
(g73
g59
NtRp4486
(dp4487
g62
(dp4488
sg71
g3782
sg64
(lp4489
g57
(g78
g59
NtRp4490
(dp4491
g62
(dp4492
g82
g83
ssg71
g4486
sg64
(lp4493
S'server_software'
p4494
asbag57
(g78
g59
NtRp4495
(dp4496
g62
(dp4497
g89
g90
ssg71
g4486
sg64
(lp4498
S':'
asbag57
(g78
g59
NtRp4499
(dp4500
g62
(dp4501
sg71
g4486
sg64
(lp4502
g57
(g58
g59
NtRp4503
(dp4504
g62
(dp4505
g70
I4
ssg71
g4499
sg64
(lp4506
S'Rocket 1.2.4'
p4507
asbasbasbag57
(g73
g59
NtRp4508
(dp4509
g62
(dp4510
sg71
g3782
sg64
(lp4511
g57
(g78
g59
NtRp4512
(dp4513
g62
(dp4514
g82
g83
ssg71
g4508
sg64
(lp4515
S'web2py_crontype'
p4516
asbag57
(g78
g59
NtRp4517
(dp4518
g62
(dp4519
g89
g90
ssg71
g4508
sg64
(lp4520
S':'
asbag57
(g78
g59
NtRp4521
(dp4522
g62
(dp4523
sg71
g4508
sg64
(lp4524
g57
(g58
g59
NtRp4525
(dp4526
g62
(dp4527
g70
I4
ssg71
g4521
sg64
(lp4528
S'hard'
p4529
asbasbasbag57
(g73
g59
NtRp4530
(dp4531
g62
(dp4532
sg71
g3782
sg64
(lp4533
g57
(g78
g59
NtRp4534
(dp4535
g62
(dp4536
g82
g83
ssg71
g4530
sg64
(lp4537
S'web2py_path'
p4538
asbag57
(g78
g59
NtRp4539
(dp4540
g62
(dp4541
g89
g90
ssg71
g4530
sg64
(lp4542
S':'
asbag57
(g78
g59
NtRp4543
(dp4544
g62
(dp4545
sg71
g4530
sg64
(lp4546
g57
(g58
g59
NtRp4547
(dp4548
g62
(dp4549
g70
I4
ssg71
g4543
sg64
(lp4550
g3829
asbasbasbag57
(g73
g59
NtRp4551
(dp4552
g62
(dp4553
sg71
g3782
sg64
(lp4554
g57
(g78
g59
NtRp4555
(dp4556
g62
(dp4557
g82
g83
ssg71
g4551
sg64
(lp4558
S'web2py_version'
p4559
asbag57
(g78
g59
NtRp4560
(dp4561
g62
(dp4562
g89
g90
ssg71
g4551
sg64
(lp4563
S':'
asbag57
(g78
g59
NtRp4564
(dp4565
g62
(dp4566
sg71
g4551
sg64
(lp4567
g57
(g58
g59
NtRp4568
(dp4569
g62
(dp4570
g70
I4
ssg71
g4564
sg64
(lp4571
g57
(g66
g59
NtRp4572
(dp4573
g62
(dp4574
g70
I3
ssg71
Nsg64
(lp4575
g57
(g73
g59
NtRp4576
(dp4577
g62
(dp4578
sg71
g4572
sg64
(lp4579
g57
(g78
g59
NtRp4580
(dp4581
g62
(dp4582
sg71
g4576
sg64
(lp4583
g57
(g58
g59
NtRp4584
(dp4585
g62
(dp4586
g70
I3
ssg71
g4580
sg64
(lp4587
S'1'
asbasbasbag57
(g73
g59
NtRp4588
(dp4589
g62
(dp4590
sg71
g4572
sg64
(lp4591
g57
(g78
g59
NtRp4592
(dp4593
g62
(dp4594
sg71
g4588
sg64
(lp4595
g57
(g58
g59
NtRp4596
(dp4597
g62
(dp4598
g70
I3
ssg71
g4592
sg64
(lp4599
S'99'
p4600
asbasbasbag57
(g73
g59
NtRp4601
(dp4602
g62
(dp4603
sg71
g4572
sg64
(lp4604
g57
(g78
g59
NtRp4605
(dp4606
g62
(dp4607
sg71
g4601
sg64
(lp4608
g57
(g58
g59
NtRp4609
(dp4610
g62
(dp4611
g70
I3
ssg71
g4605
sg64
(lp4612
S'7'
asbasbasbag57
(g73
g59
NtRp4613
(dp4614
g62
(dp4615
sg71
g4572
sg64
(lp4616
g57
(g78
g59
NtRp4617
(dp4618
g62
(dp4619
sg71
g4613
sg64
(lp4620
g57
(g58
g59
NtRp4621
(dp4622
g62
(dp4623
g70
I3
ssg71
g4617
sg64
(lp4624
S'datetime.datetime(2012, 3, 4, 22, 12, 8)'
p4625
asbasbasbag57
(g73
g59
NtRp4626
(dp4627
g62
(dp4628
sg71
g4572
sg64
(lp4629
g57
(g78
g59
NtRp4630
(dp4631
g62
(dp4632
sg71
g4626
sg64
(lp4633
g57
(g58
g59
NtRp4634
(dp4635
g62
(dp4636
g70
I3
ssg71
g4630
sg64
(lp4637
S'stable'
p4638
asbasbasbasbasbasbasbag57
(g73
g59
NtRp4639
(dp4640
g62
(dp4641
sg71
g3782
sg64
(lp4642
g57
(g78
g59
NtRp4643
(dp4644
g62
(dp4645
g82
g83
ssg71
g4639
sg64
(lp4646
S'wsgi_errors'
p4647
asbag57
(g78
g59
NtRp4648
(dp4649
g62
(dp4650
g89
g90
ssg71
g4639
sg64
(lp4651
S':'
asbag57
(g78
g59
NtRp4652
(dp4653
g62
(dp4654
sg71
g4639
sg64
(lp4655
g57
(g58
g59
NtRp4656
(dp4657
g62
(dp4658
g70
I4
ssg71
g4652
sg64
(lp4659
S"<open file '<stderr>', mode 'w' at 0x7f226c86d270>"
p4660
asbasbasbag57
(g73
g59
NtRp4661
(dp4662
g62
(dp4663
sg71
g3782
sg64
(lp4664
g57
(g78
g59
NtRp4665
(dp4666
g62
(dp4667
g82
g83
ssg71
g4661
sg64
(lp4668
S'wsgi_file_wrapper'
p4669
asbag57
(g78
g59
NtRp4670
(dp4671
g62
(dp4672
g89
g90
ssg71
g4661
sg64
(lp4673
S':'
asbag57
(g78
g59
NtRp4674
(dp4675
g62
(dp4676
sg71
g4661
sg64
(lp4677
g57
(g58
g59
NtRp4678
(dp4679
g62
(dp4680
g70
I4
ssg71
g4674
sg64
(lp4681
S'<class wsgiref.util.FileWrapper at 0x14a22c0>'
p4682
asbasbasbag57
(g73
g59
NtRp4683
(dp4684
g62
(dp4685
sg71
g3782
sg64
(lp4686
g57
(g78
g59
NtRp4687
(dp4688
g62
(dp4689
g82
g83
ssg71
g4683
sg64
(lp4690
S'wsgi_input'
p4691
asbag57
(g78
g59
NtRp4692
(dp4693
g62
(dp4694
g89
g90
ssg71
g4683
sg64
(lp4695
S':'
asbag57
(g78
g59
NtRp4696
(dp4697
g62
(dp4698
sg71
g4683
sg64
(lp4699
g57
(g58
g59
NtRp4700
(dp4701
g62
(dp4702
g70
I4
ssg71
g4696
sg64
(lp4703
S'<socket._fileobject object at 0x7f223802c4d0>'
p4704
asbasbasbag57
(g73
g59
NtRp4705
(dp4706
g62
(dp4707
sg71
g3782
sg64
(lp4708
g57
(g78
g59
NtRp4709
(dp4710
g62
(dp4711
g82
g83
ssg71
g4705
sg64
(lp4712
S'wsgi_multiprocess'
p4713
asbag57
(g78
g59
NtRp4714
(dp4715
g62
(dp4716
g89
g90
ssg71
g4705
sg64
(lp4717
S':'
asbag57
(g78
g59
NtRp4718
(dp4719
g62
(dp4720
sg71
g4705
sg64
(lp4721
g57
(g58
g59
NtRp4722
(dp4723
g62
(dp4724
g70
I4
ssg71
g4718
sg64
(lp4725
g3964
asbasbasbag57
(g73
g59
NtRp4726
(dp4727
g62
(dp4728
sg71
g3782
sg64
(lp4729
g57
(g78
g59
NtRp4730
(dp4731
g62
(dp4732
g82
g83
ssg71
g4726
sg64
(lp4733
S'wsgi_multithread'
p4734
asbag57
(g78
g59
NtRp4735
(dp4736
g62
(dp4737
g89
g90
ssg71
g4726
sg64
(lp4738
S':'
asbag57
(g78
g59
NtRp4739
(dp4740
g62
(dp4741
sg71
g4726
sg64
(lp4742
g57
(g58
g59
NtRp4743
(dp4744
g62
(dp4745
g70
I4
ssg71
g4739
sg64
(lp4746
g100
asbasbasbag57
(g73
g59
NtRp4747
(dp4748
g62
(dp4749
sg71
g3782
sg64
(lp4750
g57
(g78
g59
NtRp4751
(dp4752
g62
(dp4753
g82
g83
ssg71
g4747
sg64
(lp4754
S'wsgi_run_once'
p4755
asbag57
(g78
g59
NtRp4756
(dp4757
g62
(dp4758
g89
g90
ssg71
g4747
sg64
(lp4759
S':'
asbag57
(g78
g59
NtRp4760
(dp4761
g62
(dp4762
sg71
g4747
sg64
(lp4763
g57
(g58
g59
NtRp4764
(dp4765
g62
(dp4766
g70
I4
ssg71
g4760
sg64
(lp4767
g3964
asbasbasbag57
(g73
g59
NtRp4768
(dp4769
g62
(dp4770
sg71
g3782
sg64
(lp4771
g57
(g78
g59
NtRp4772
(dp4773
g62
(dp4774
g82
g83
ssg71
g4768
sg64
(lp4775
S'wsgi_url_scheme'
p4776
asbag57
(g78
g59
NtRp4777
(dp4778
g62
(dp4779
g89
g90
ssg71
g4768
sg64
(lp4780
S':'
asbag57
(g78
g59
NtRp4781
(dp4782
g62
(dp4783
sg71
g4768
sg64
(lp4784
g57
(g58
g59
NtRp4785
(dp4786
g62
(dp4787
g70
I4
ssg71
g4781
sg64
(lp4788
S'http'
p4789
asbasbasbag57
(g73
g59
NtRp4790
(dp4791
g62
(dp4792
sg71
g3782
sg64
(lp4793
g57
(g78
g59
NtRp4794
(dp4795
g62
(dp4796
g82
g83
ssg71
g4790
sg64
(lp4797
S'wsgi_version'
p4798
asbag57
(g78
g59
NtRp4799
(dp4800
g62
(dp4801
g89
g90
ssg71
g4790
sg64
(lp4802
S':'
asbag57
(g78
g59
NtRp4803
(dp4804
g62
(dp4805
sg71
g4790
sg64
(lp4806
g57
(g58
g59
NtRp4807
(dp4808
g62
(dp4809
g70
I4
ssg71
g4803
sg64
(lp4810
g57
(g66
g59
NtRp4811
(dp4812
g62
(dp4813
g70
I3
ssg71
Nsg64
(lp4814
g57
(g73
g59
NtRp4815
(dp4816
g62
(dp4817
sg71
g4811
sg64
(lp4818
g57
(g78
g59
NtRp4819
(dp4820
g62
(dp4821
sg71
g4815
sg64
(lp4822
g57
(g58
g59
NtRp4823
(dp4824
g62
(dp4825
g70
I3
ssg71
g4819
sg64
(lp4826
S'1'
asbasbasbag57
(g73
g59
NtRp4827
(dp4828
g62
(dp4829
sg71
g4811
sg64
(lp4830
g57
(g78
g59
NtRp4831
(dp4832
g62
(dp4833
sg71
g4827
sg64
(lp4834
g57
(g58
g59
NtRp4835
(dp4836
g62
(dp4837
g70
I3
ssg71
g4831
sg64
(lp4838
S'0'
asbasbasbasbasbasbasbasbasbasbasbag57
(g73
g59
NtRp4839
(dp4840
g62
(dp4841
sg71
g67
sg64
(lp4842
g57
(g78
g59
NtRp4843
(dp4844
g62
(dp4845
g82
g83
ssg71
g4839
sg64
(lp4846
S'extension'
p4847
asbag57
(g78
g59
NtRp4848
(dp4849
g62
(dp4850
g89
g90
ssg71
g4839
sg64
(lp4851
S':'
asbag57
(g78
g59
NtRp4852
(dp4853
g62
(dp4854
sg71
g4839
sg64
(lp4855
g57
(g58
g59
NtRp4856
(dp4857
g62
(dp4858
g70
I5
ssg71
g4852
sg64
(lp4859
S'html'
p4860
asbasbasbag57
(g73
g59
NtRp4861
(dp4862
g62
(dp4863
sg71
g67
sg64
(lp4864
g57
(g78
g59
NtRp4865
(dp4866
g62
(dp4867
g82
g83
ssg71
g4861
sg64
(lp4868
S'folder'
p4869
asbag57
(g78
g59
NtRp4870
(dp4871
g62
(dp4872
g89
g90
ssg71
g4861
sg64
(lp4873
S':'
asbag57
(g78
g59
NtRp4874
(dp4875
g62
(dp4876
sg71
g4861
sg64
(lp4877
g57
(g58
g59
NtRp4878
(dp4879
g62
(dp4880
g70
I5
ssg71
g4874
sg64
(lp4881
S'/home/shantanu/web2py/applications/FileManager/'
p4882
asbasbasbag57
(g73
g59
NtRp4883
(dp4884
g62
(dp4885
sg71
g67
sg64
(lp4886
g57
(g78
g59
NtRp4887
(dp4888
g62
(dp4889
g82
g83
ssg71
g4883
sg64
(lp4890
S'function'
p4891
asbag57
(g78
g59
NtRp4892
(dp4893
g62
(dp4894
g89
g90
ssg71
g4883
sg64
(lp4895
S':'
asbag57
(g78
g59
NtRp4896
(dp4897
g62
(dp4898
sg71
g4883
sg64
(lp4899
g57
(g58
g59
NtRp4900
(dp4901
g62
(dp4902
g70
I5
ssg71
g4896
sg64
(lp4903
S'add'
p4904
asbasbasbag57
(g73
g59
NtRp4905
(dp4906
g62
(dp4907
sg71
g67
sg64
(lp4908
g57
(g78
g59
NtRp4909
(dp4910
g62
(dp4911
g82
g83
ssg71
g4905
sg64
(lp4912
S'get_vars'
p4913
asbag57
(g78
g59
NtRp4914
(dp4915
g62
(dp4916
g89
g90
ssg71
g4905
sg64
(lp4917
S':'
asbag57
(g78
g59
NtRp4918
(dp4919
g62
(dp4920
sg71
g4905
sg64
(lp4921
g57
(g58
g59
NtRp4922
(dp4923
g62
(dp4924
g70
I5
ssg71
g4918
sg64
(lp4925
g57
(g66
g59
NtRp4926
(dp4927
g62
(dp4928
g70
I4
ssg71
Nsg64
(lp4929
sbasbasbasbag57
(g73
g59
NtRp4930
(dp4931
g62
(dp4932
sg71
g67
sg64
(lp4933
g57
(g78
g59
NtRp4934
(dp4935
g62
(dp4936
g82
g83
ssg71
g4930
sg64
(lp4937
S'global_settings'
p4938
asbag57
(g78
g59
NtRp4939
(dp4940
g62
(dp4941
g89
g90
ssg71
g4930
sg64
(lp4942
S':'
asbag57
(g78
g59
NtRp4943
(dp4944
g62
(dp4945
sg71
g4930
sg64
(lp4946
g57
(g58
g59
NtRp4947
(dp4948
g62
(dp4949
g70
I5
ssg71
g4943
sg64
(lp4950
g57
(g66
g59
NtRp4951
(dp4952
g62
(dp4953
g70
I4
ssg71
Nsg64
(lp4954
g57
(g73
g59
NtRp4955
(dp4956
g62
(dp4957
sg71
g4951
sg64
(lp4958
g57
(g78
g59
NtRp4959
(dp4960
g62
(dp4961
g82
g83
ssg71
g4955
sg64
(lp4962
g3794
asbag57
(g78
g59
NtRp4963
(dp4964
g62
(dp4965
g89
g90
ssg71
g4955
sg64
(lp4966
S':'
asbag57
(g78
g59
NtRp4967
(dp4968
g62
(dp4969
sg71
g4955
sg64
(lp4970
g57
(g58
g59
NtRp4971
(dp4972
g62
(dp4973
g70
I4
ssg71
g4967
sg64
(lp4974
S"set(['/home/shantanu/web2py/applications/ImageGallery/', '/home/shantanu/web2py/applications/FacebookConnectExample/', '/home/shantanu/web2py/applications/UploadAndShareFiles/', '/home/shantanu/web2py/applications/FileManager/', '/home/shantanu/web2py/applications/welcome/', '/home/shantanu/web2py/applications/admin/', '/home/shantanu/web2py/applications/EStoreExample/', '/home/shantanu/web2py/applications/RedditClone/', '/home/shantanu/web2py/applications/BingApi/', '/home/shantanu/web2py/applications/CeleryIntegrationExample/', '/home/shantanu/web2py/applications/Appliances/', '/home/shantanu/web2py/applications/sp/', '/home/shantanu/web2py/applications/OnlineMagazine/', '/home/shantanu/web2py/applications/FacebookExample/', '/home/shantanu/web2py/applications/BitcoinExample/', '/home/shantanu/web2py/applications/FacebookClone/', '/home/shantanu/web2py/applications/AjaxSpreadsheet/', '/home/shantanu/web2py/applications/CarSales/', '/home/shantanu/web2py/applications/FileTreeBrowser/', '/home/shantanu/web2py/applications/ManageContacts/', '/home/shantanu/web2py/applications/ContactForms/', '/home/shantanu/web2py/applications/EmailContactForm/'])"
p4975
asbasbasbag57
(g73
g59
NtRp4976
(dp4977
g62
(dp4978
sg71
g4951
sg64
(lp4979
g57
(g78
g59
NtRp4980
(dp4981
g62
(dp4982
g82
g83
ssg71
g4976
sg64
(lp4983
g3816
asbag57
(g78
g59
NtRp4984
(dp4985
g62
(dp4986
g89
g90
ssg71
g4976
sg64
(lp4987
S':'
asbag57
(g78
g59
NtRp4988
(dp4989
g62
(dp4990
sg71
g4976
sg64
(lp4991
g57
(g58
g59
NtRp4992
(dp4993
g62
(dp4994
g70
I4
ssg71
g4988
sg64
(lp4995
g3829
asbasbasbag57
(g73
g59
NtRp4996
(dp4997
g62
(dp4998
sg71
g4951
sg64
(lp4999
g57
(g78
g59
NtRp5000
(dp5001
g62
(dp5002
g82
g83
ssg71
g4996
sg64
(lp5003
g3838
asbag57
(g78
g59
NtRp5004
(dp5005
g62
(dp5006
g89
g90
ssg71
g4996
sg64
(lp5007
S':'
asbag57
(g78
g59
NtRp5008
(dp5009
g62
(dp5010
sg71
g4996
sg64
(lp5011
g57
(g58
g59
NtRp5012
(dp5013
g62
(dp5014
g70
I4
ssg71
g5008
sg64
(lp5015
g57
(g66
g59
NtRp5016
(dp5017
g62
(dp5018
g70
I3
ssg71
Nsg64
(lp5019
sbasbasbasbag57
(g73
g59
NtRp5020
(dp5021
g62
(dp5022
sg71
g4951
sg64
(lp5023
g57
(g78
g59
NtRp5024
(dp5025
g62
(dp5026
g82
g83
ssg71
g5020
sg64
(lp5027
g3863
asbag57
(g78
g59
NtRp5028
(dp5029
g62
(dp5030
g89
g90
ssg71
g5020
sg64
(lp5031
S':'
asbag57
(g78
g59
NtRp5032
(dp5033
g62
(dp5034
sg71
g5020
sg64
(lp5035
g57
(g58
g59
NtRp5036
(dp5037
g62
(dp5038
g70
I4
ssg71
g5032
sg64
(lp5039
S"<Values at 0x1894440: {'verbose': False, 'ip': '127.0.0.1', 'shutdown_timeout': 5, 'taskbar': False, 'nocron': False, 'pid_filename': 'httpserver.pid', 'maxthreads': None, 'softcron': False, 'server_name': 'shantanu-HP-550', 'bpython': False, 'nogui': False, 'port': 8000, 'extcron': False, 'debuglevel': 30, 'test': None, 'folder': '/home/shantanu/web2py', 'config': '', 'import_models': False, 'winservice': '', 'shell': None, 'run': '', 'log_filename': 'httpserver.log', 'args': [''], 'socket_timeout': 5, 'ssl_ca_certificate': None, 'scheduler': None, 'profiler_filename': None, 'ssl_private_key': '', 'password': '<ask>', 'request_queue_size': 5, 'ssl_certificate': '', 'cronjob': False, 'numthreads': None, 'quiet': False, 'interfaces': None, 'minthreads': None, 'timeout': 10, 'plain': False, 'nobanner': False}>"
p5040
asbasbasbag57
(g73
g59
NtRp5041
(dp5042
g62
(dp5043
sg71
g4951
sg64
(lp5044
g57
(g78
g59
NtRp5045
(dp5046
g62
(dp5047
g82
g83
ssg71
g5041
sg64
(lp5048
g3929
asbag57
(g78
g59
NtRp5049
(dp5050
g62
(dp5051
g89
g90
ssg71
g5041
sg64
(lp5052
S':'
asbag57
(g78
g59
NtRp5053
(dp5054
g62
(dp5055
sg71
g5041
sg64
(lp5056
g57
(g58
g59
NtRp5057
(dp5058
g62
(dp5059
g70
I4
ssg71
g5053
sg64
(lp5060
S'set([])'
p5061
asbasbasbag57
(g73
g59
NtRp5062
(dp5063
g62
(dp5064
sg71
g4951
sg64
(lp5065
g57
(g78
g59
NtRp5066
(dp5067
g62
(dp5068
g82
g83
ssg71
g5062
sg64
(lp5069
g3951
asbag57
(g78
g59
NtRp5070
(dp5071
g62
(dp5072
g89
g90
ssg71
g5062
sg64
(lp5073
S':'
asbag57
(g78
g59
NtRp5074
(dp5075
g62
(dp5076
sg71
g5062
sg64
(lp5077
g57
(g58
g59
NtRp5078
(dp5079
g62
(dp5080
g70
I4
ssg71
g5074
sg64
(lp5081
g3964
asbasbasbag57
(g73
g59
NtRp5082
(dp5083
g62
(dp5084
sg71
g4951
sg64
(lp5085
g57
(g78
g59
NtRp5086
(dp5087
g62
(dp5088
g82
g83
ssg71
g5082
sg64
(lp5089
g3973
asbag57
(g78
g59
NtRp5090
(dp5091
g62
(dp5092
g89
g90
ssg71
g5082
sg64
(lp5093
S':'
asbag57
(g78
g59
NtRp5094
(dp5095
g62
(dp5096
sg71
g5082
sg64
(lp5097
g57
(g58
g59
NtRp5098
(dp5099
g62
(dp5100
g70
I4
ssg71
g5094
sg64
(lp5101
g3986
asbasbasbag57
(g73
g59
NtRp5102
(dp5103
g62
(dp5104
sg71
g4951
sg64
(lp5105
g57
(g78
g59
NtRp5106
(dp5107
g62
(dp5108
g82
g83
ssg71
g5102
sg64
(lp5109
g4257
asbag57
(g78
g59
NtRp5110
(dp5111
g62
(dp5112
g89
g90
ssg71
g5102
sg64
(lp5113
S':'
asbag57
(g78
g59
NtRp5114
(dp5115
g62
(dp5116
sg71
g5102
sg64
(lp5117
g57
(g58
g59
NtRp5118
(dp5119
g62
(dp5120
g70
I4
ssg71
g5114
sg64
(lp5121
g3964
asbasbasbag57
(g73
g59
NtRp5122
(dp5123
g62
(dp5124
sg71
g4951
sg64
(lp5125
g57
(g78
g59
NtRp5126
(dp5127
g62
(dp5128
g82
g83
ssg71
g5122
sg64
(lp5129
g4278
asbag57
(g78
g59
NtRp5130
(dp5131
g62
(dp5132
g89
g90
ssg71
g5122
sg64
(lp5133
S':'
asbag57
(g78
g59
NtRp5134
(dp5135
g62
(dp5136
sg71
g5122
sg64
(lp5137
g57
(g58
g59
NtRp5138
(dp5139
g62
(dp5140
g70
I4
ssg71
g5134
sg64
(lp5141
g3964
asbasbasbag57
(g73
g59
NtRp5142
(dp5143
g62
(dp5144
sg71
g4951
sg64
(lp5145
g57
(g78
g59
NtRp5146
(dp5147
g62
(dp5148
g82
g83
ssg71
g5142
sg64
(lp5149
g4516
asbag57
(g78
g59
NtRp5150
(dp5151
g62
(dp5152
g89
g90
ssg71
g5142
sg64
(lp5153
S':'
asbag57
(g78
g59
NtRp5154
(dp5155
g62
(dp5156
sg71
g5142
sg64
(lp5157
g57
(g58
g59
NtRp5158
(dp5159
g62
(dp5160
g70
I4
ssg71
g5154
sg64
(lp5161
g4529
asbasbasbag57
(g73
g59
NtRp5162
(dp5163
g62
(dp5164
sg71
g4951
sg64
(lp5165
g57
(g78
g59
NtRp5166
(dp5167
g62
(dp5168
g82
g83
ssg71
g5162
sg64
(lp5169
g4559
asbag57
(g78
g59
NtRp5170
(dp5171
g62
(dp5172
g89
g90
ssg71
g5162
sg64
(lp5173
S':'
asbag57
(g78
g59
NtRp5174
(dp5175
g62
(dp5176
sg71
g5162
sg64
(lp5177
g57
(g58
g59
NtRp5178
(dp5179
g62
(dp5180
g70
I4
ssg71
g5174
sg64
(lp5181
g57
(g66
g59
NtRp5182
(dp5183
g62
(dp5184
g70
I3
ssg71
Nsg64
(lp5185
g57
(g73
g59
NtRp5186
(dp5187
g62
(dp5188
sg71
g5182
sg64
(lp5189
g57
(g78
g59
NtRp5190
(dp5191
g62
(dp5192
sg71
g5186
sg64
(lp5193
g57
(g58
g59
NtRp5194
(dp5195
g62
(dp5196
g70
I3
ssg71
g5190
sg64
(lp5197
S'1'
asbasbasbag57
(g73
g59
NtRp5198
(dp5199
g62
(dp5200
sg71
g5182
sg64
(lp5201
g57
(g78
g59
NtRp5202
(dp5203
g62
(dp5204
sg71
g5198
sg64
(lp5205
g57
(g58
g59
NtRp5206
(dp5207
g62
(dp5208
g70
I3
ssg71
g5202
sg64
(lp5209
S'99'
p5210
asbasbasbag57
(g73
g59
NtRp5211
(dp5212
g62
(dp5213
sg71
g5182
sg64
(lp5214
g57
(g78
g59
NtRp5215
(dp5216
g62
(dp5217
sg71
g5211
sg64
(lp5218
g57
(g58
g59
NtRp5219
(dp5220
g62
(dp5221
g70
I3
ssg71
g5215
sg64
(lp5222
S'7'
asbasbasbag57
(g73
g59
NtRp5223
(dp5224
g62
(dp5225
sg71
g5182
sg64
(lp5226
g57
(g78
g59
NtRp5227
(dp5228
g62
(dp5229
sg71
g5223
sg64
(lp5230
g57
(g58
g59
NtRp5231
(dp5232
g62
(dp5233
g70
I3
ssg71
g5227
sg64
(lp5234
S'datetime.datetime(2012, 3, 4, 22, 12, 8)'
p5235
asbasbasbag57
(g73
g59
NtRp5236
(dp5237
g62
(dp5238
sg71
g5182
sg64
(lp5239
g57
(g78
g59
NtRp5240
(dp5241
g62
(dp5242
sg71
g5236
sg64
(lp5243
g57
(g58
g59
NtRp5244
(dp5245
g62
(dp5246
g70
I3
ssg71
g5240
sg64
(lp5247
g4638
asbasbasbasbasbasbasbasbasbasbasbag57
(g73
g59
NtRp5248
(dp5249
g62
(dp5250
sg71
g67
sg64
(lp5251
g57
(g78
g59
NtRp5252
(dp5253
g62
(dp5254
g82
g83
ssg71
g5248
sg64
(lp5255
S'is_https'
p5256
asbag57
(g78
g59
NtRp5257
(dp5258
g62
(dp5259
g89
g90
ssg71
g5248
sg64
(lp5260
S':'
asbag57
(g78
g59
NtRp5261
(dp5262
g62
(dp5263
sg71
g5248
sg64
(lp5264
g57
(g58
g59
NtRp5265
(dp5266
g62
(dp5267
g70
I5
ssg71
g5261
sg64
(lp5268
g3964
asbasbasbag57
(g73
g59
NtRp5269
(dp5270
g62
(dp5271
sg71
g67
sg64
(lp5272
g57
(g78
g59
NtRp5273
(dp5274
g62
(dp5275
g82
g83
ssg71
g5269
sg64
(lp5276
S'is_local'
p5277
asbag57
(g78
g59
NtRp5278
(dp5279
g62
(dp5280
g89
g90
ssg71
g5269
sg64
(lp5281
S':'
asbag57
(g78
g59
NtRp5282
(dp5283
g62
(dp5284
sg71
g5269
sg64
(lp5285
g57
(g58
g59
NtRp5286
(dp5287
g62
(dp5288
g70
I5
ssg71
g5282
sg64
(lp5289
g100
asbasbasbag57
(g73
g59
NtRp5290
(dp5291
g62
(dp5292
sg71
g67
sg64
(lp5293
g57
(g78
g59
NtRp5294
(dp5295
g62
(dp5296
g82
g83
ssg71
g5290
sg64
(lp5297
S'is_restful'
p5298
asbag57
(g78
g59
NtRp5299
(dp5300
g62
(dp5301
g89
g90
ssg71
g5290
sg64
(lp5302
S':'
asbag57
(g78
g59
NtRp5303
(dp5304
g62
(dp5305
sg71
g5290
sg64
(lp5306
g57
(g58
g59
NtRp5307
(dp5308
g62
(dp5309
g70
I5
ssg71
g5303
sg64
(lp5310
g3964
asbasbasbag57
(g73
g59
NtRp5311
(dp5312
g62
(dp5313
sg71
g67
sg64
(lp5314
g57
(g78
g59
NtRp5315
(dp5316
g62
(dp5317
g82
g83
ssg71
g5311
sg64
(lp5318
S'now'
p5319
asbag57
(g78
g59
NtRp5320
(dp5321
g62
(dp5322
g89
g90
ssg71
g5311
sg64
(lp5323
S':'
asbag57
(g78
g59
NtRp5324
(dp5325
g62
(dp5326
sg71
g5311
sg64
(lp5327
g57
(g58
g59
NtRp5328
(dp5329
g62
(dp5330
g70
I5
ssg71
g5324
sg64
(lp5331
S'datetime.datetime(1980, 1, 4, 5, 52, 0, 829139)'
p5332
asbasbasbag57
(g73
g59
NtRp5333
(dp5334
g62
(dp5335
sg71
g67
sg64
(lp5336
g57
(g78
g59
NtRp5337
(dp5338
g62
(dp5339
g82
g83
ssg71
g5333
sg64
(lp5340
S'post_vars'
p5341
asbag57
(g78
g59
NtRp5342
(dp5343
g62
(dp5344
g89
g90
ssg71
g5333
sg64
(lp5345
S':'
asbag57
(g78
g59
NtRp5346
(dp5347
g62
(dp5348
sg71
g5333
sg64
(lp5349
g57
(g58
g59
NtRp5350
(dp5351
g62
(dp5352
g70
I5
ssg71
g5346
sg64
(lp5353
g57
(g66
g59
NtRp5354
(dp5355
g62
(dp5356
g70
I4
ssg71
Nsg64
(lp5357
g57
(g73
g59
NtRp5358
(dp5359
g62
(dp5360
sg71
g5354
sg64
(lp5361
g57
(g78
g59
NtRp5362
(dp5363
g62
(dp5364
g82
g83
ssg71
g5358
sg64
(lp5365
S'currentpath'
p5366
asbag57
(g78
g59
NtRp5367
(dp5368
g62
(dp5369
g89
g90
ssg71
g5358
sg64
(lp5370
S':'
asbag57
(g78
g59
NtRp5371
(dp5372
g62
(dp5373
sg71
g5358
sg64
(lp5374
g57
(g58
g59
NtRp5375
(dp5376
g62
(dp5377
g70
I4
ssg71
g5371
sg64
(lp5378
S'/Videos/'
p5379
asbasbasbag57
(g73
g59
NtRp5380
(dp5381
g62
(dp5382
sg71
g5354
sg64
(lp5383
g57
(g78
g59
NtRp5384
(dp5385
g62
(dp5386
g82
g83
ssg71
g5380
sg64
(lp5387
S'file'
p5388
asbag57
(g78
g59
NtRp5389
(dp5390
g62
(dp5391
g89
g90
ssg71
g5380
sg64
(lp5392
S':'
asbag57
(g78
g59
NtRp5393
(dp5394
g62
(dp5395
sg71
g5380
sg64
(lp5396
g57
(g58
g59
NtRp5397
(dp5398
g62
(dp5399
g70
I4
ssg71
g5393
sg64
(lp5400
S''
asbasbasbag57
(g73
g59
NtRp5401
(dp5402
g62
(dp5403
sg71
g5354
sg64
(lp5404
g57
(g78
g59
NtRp5405
(dp5406
g62
(dp5407
g82
g83
ssg71
g5401
sg64
(lp5408
S'mode'
p5409
asbag57
(g78
g59
NtRp5410
(dp5411
g62
(dp5412
g89
g90
ssg71
g5401
sg64
(lp5413
S':'
asbag57
(g78
g59
NtRp5414
(dp5415
g62
(dp5416
sg71
g5401
sg64
(lp5417
g57
(g58
g59
NtRp5418
(dp5419
g62
(dp5420
g70
I4
ssg71
g5414
sg64
(lp5421
S'add'
p5422
asbasbasbag57
(g73
g59
NtRp5423
(dp5424
g62
(dp5425
sg71
g5354
sg64
(lp5426
g57
(g78
g59
NtRp5427
(dp5428
g62
(dp5429
g82
g83
ssg71
g5423
sg64
(lp5430
S'upload'
p5431
asbag57
(g78
g59
NtRp5432
(dp5433
g62
(dp5434
g89
g90
ssg71
g5423
sg64
(lp5435
S':'
asbag57
(g78
g59
NtRp5436
(dp5437
g62
(dp5438
sg71
g5423
sg64
(lp5439
g57
(g58
g59
NtRp5440
(dp5441
g62
(dp5442
g70
I4
ssg71
g5436
sg64
(lp5443
S'Upload'
p5444
asbasbasbasbasbasbasbag57
(g73
g59
NtRp5445
(dp5446
g62
(dp5447
sg71
g67
sg64
(lp5448
g57
(g78
g59
NtRp5449
(dp5450
g62
(dp5451
g82
g83
ssg71
g5445
sg64
(lp5452
S'url'
p5453
asbag57
(g78
g59
NtRp5454
(dp5455
g62
(dp5456
g89
g90
ssg71
g5445
sg64
(lp5457
S':'
asbag57
(g78
g59
NtRp5458
(dp5459
g62
(dp5460
sg71
g5445
sg64
(lp5461
g57
(g58
g59
NtRp5462
(dp5463
g62
(dp5464
g70
I5
ssg71
g5458
sg64
(lp5465
S'/FileManager/default/add'
p5466
asbasbasbag57
(g73
g59
NtRp5467
(dp5468
g62
(dp5469
sg71
g67
sg64
(lp5470
g57
(g78
g59
NtRp5471
(dp5472
g62
(dp5473
g82
g83
ssg71
g5467
sg64
(lp5474
S'utcnow'
p5475
asbag57
(g78
g59
NtRp5476
(dp5477
g62
(dp5478
g89
g90
ssg71
g5467
sg64
(lp5479
S':'
asbag57
(g78
g59
NtRp5480
(dp5481
g62
(dp5482
sg71
g5467
sg64
(lp5483
g57
(g58
g59
NtRp5484
(dp5485
g62
(dp5486
g70
I5
ssg71
g5480
sg64
(lp5487
S'datetime.datetime(1980, 1, 4, 0, 22, 0, 829197)'
p5488
asbasbasbag57
(g73
g59
NtRp5489
(dp5490
g62
(dp5491
sg71
g67
sg64
(lp5492
g57
(g78
g59
NtRp5493
(dp5494
g62
(dp5495
g82
g83
ssg71
g5489
sg64
(lp5496
S'uuid'
p5497
asbag57
(g78
g59
NtRp5498
(dp5499
g62
(dp5500
g89
g90
ssg71
g5489
sg64
(lp5501
S':'
asbag57
(g78
g59
NtRp5502
(dp5503
g62
(dp5504
sg71
g5489
sg64
(lp5505
g57
(g58
g59
NtRp5506
(dp5507
g62
(dp5508
g70
I5
ssg71
g5502
sg64
(lp5509
S'FileManager/127.0.0.1.1980-01-04.05-52-00.267a5ad0-aab2-4e8a-a19d-db525013f98c'
p5510
asbasbasbag57
(g73
g59
NtRp5511
(dp5512
g62
(dp5513
sg71
g67
sg64
(lp5514
g57
(g78
g59
NtRp5515
(dp5516
g62
(dp5517
g82
g83
ssg71
g5511
sg64
(lp5518
S'vars'
p5519
asbag57
(g78
g59
NtRp5520
(dp5521
g62
(dp5522
g89
g90
ssg71
g5511
sg64
(lp5523
S':'
asbag57
(g78
g59
NtRp5524
(dp5525
g62
(dp5526
sg71
g5511
sg64
(lp5527
g57
(g58
g59
NtRp5528
(dp5529
g62
(dp5530
g70
I5
ssg71
g5524
sg64
(lp5531
g57
(g66
g59
NtRp5532
(dp5533
g62
(dp5534
g70
I4
ssg71
Nsg64
(lp5535
g57
(g73
g59
NtRp5536
(dp5537
g62
(dp5538
sg71
g5532
sg64
(lp5539
g57
(g78
g59
NtRp5540
(dp5541
g62
(dp5542
g82
g83
ssg71
g5536
sg64
(lp5543
g5366
asbag57
(g78
g59
NtRp5544
(dp5545
g62
(dp5546
g89
g90
ssg71
g5536
sg64
(lp5547
S':'
asbag57
(g78
g59
NtRp5548
(dp5549
g62
(dp5550
sg71
g5536
sg64
(lp5551
g57
(g58
g59
NtRp5552
(dp5553
g62
(dp5554
g70
I4
ssg71
g5548
sg64
(lp5555
g5379
asbasbasbag57
(g73
g59
NtRp5556
(dp5557
g62
(dp5558
sg71
g5532
sg64
(lp5559
g57
(g78
g59
NtRp5560
(dp5561
g62
(dp5562
g82
g83
ssg71
g5556
sg64
(lp5563
g5388
asbag57
(g78
g59
NtRp5564
(dp5565
g62
(dp5566
g89
g90
ssg71
g5556
sg64
(lp5567
S':'
asbag57
(g78
g59
NtRp5568
(dp5569
g62
(dp5570
sg71
g5556
sg64
(lp5571
g57
(g58
g59
NtRp5572
(dp5573
g62
(dp5574
g70
I4
ssg71
g5568
sg64
(lp5575
S''
asbasbasbag57
(g73
g59
NtRp5576
(dp5577
g62
(dp5578
sg71
g5532
sg64
(lp5579
g57
(g78
g59
NtRp5580
(dp5581
g62
(dp5582
g82
g83
ssg71
g5576
sg64
(lp5583
g5409
asbag57
(g78
g59
NtRp5584
(dp5585
g62
(dp5586
g89
g90
ssg71
g5576
sg64
(lp5587
S':'
asbag57
(g78
g59
NtRp5588
(dp5589
g62
(dp5590
sg71
g5576
sg64
(lp5591
g57
(g58
g59
NtRp5592
(dp5593
g62
(dp5594
g70
I4
ssg71
g5588
sg64
(lp5595
g5422
asbasbasbag57
(g73
g59
NtRp5596
(dp5597
g62
(dp5598
sg71
g5532
sg64
(lp5599
g57
(g78
g59
NtRp5600
(dp5601
g62
(dp5602
g82
g83
ssg71
g5596
sg64
(lp5603
g5431
asbag57
(g78
g59
NtRp5604
(dp5605
g62
(dp5606
g89
g90
ssg71
g5596
sg64
(lp5607
S':'
asbag57
(g78
g59
NtRp5608
(dp5609
g62
(dp5610
sg71
g5596
sg64
(lp5611
g57
(g58
g59
NtRp5612
(dp5613
g62
(dp5614
g70
I4
ssg71
g5608
sg64
(lp5615
g5444
asbasbasbasbasbasbasbag57
(g73
g59
NtRp5616
(dp5617
g62
(dp5618
sg71
g67
sg64
(lp5619
g57
(g78
g59
NtRp5620
(dp5621
g62
(dp5622
g82
g83
ssg71
g5616
sg64
(lp5623
S'wsgi'
p5624
asbag57
(g78
g59
NtRp5625
(dp5626
g62
(dp5627
g89
g90
ssg71
g5616
sg64
(lp5628
S':'
asbag57
(g78
g59
NtRp5629
(dp5630
g62
(dp5631
sg71
g5616
sg64
(lp5632
g57
(g58
g59
NtRp5633
(dp5634
g62
(dp5635
g70
I5
ssg71
g5629
sg64
(lp5636
g57
(g66
g59
NtRp5637
(dp5638
g62
(dp5639
g70
I4
ssg71
Nsg64
(lp5640
g57
(g73
g59
NtRp5641
(dp5642
g62
(dp5643
sg71
g5637
sg64
(lp5644
g57
(g78
g59
NtRp5645
(dp5646
g62
(dp5647
g82
g83
ssg71
g5641
sg64
(lp5648
S'environ'
p5649
asbag57
(g78
g59
NtRp5650
(dp5651
g62
(dp5652
g89
g90
ssg71
g5641
sg64
(lp5653
S':'
asbag57
(g78
g59
NtRp5654
(dp5655
g62
(dp5656
sg71
g5641
sg64
(lp5657
g57
(g58
g59
NtRp5658
(dp5659
g62
(dp5660
g70
I4
ssg71
g5654
sg64
(lp5661
g57
(g66
g59
NtRp5662
(dp5663
g62
(dp5664
g70
I3
ssg71
Nsg64
(lp5665
g57
(g73
g59
NtRp5666
(dp5667
g62
(dp5668
sg71
g5662
sg64
(lp5669
g57
(g78
g59
NtRp5670
(dp5671
g62
(dp5672
g82
g83
ssg71
g5666
sg64
(lp5673
S'CONTENT_LENGTH'
p5674
asbag57
(g78
g59
NtRp5675
(dp5676
g62
(dp5677
g89
g90
ssg71
g5666
sg64
(lp5678
S':'
asbag57
(g78
g59
NtRp5679
(dp5680
g62
(dp5681
sg71
g5666
sg64
(lp5682
g57
(g58
g59
NtRp5683
(dp5684
g62
(dp5685
g70
I3
ssg71
g5679
sg64
(lp5686
g3898
asbasbasbag57
(g73
g59
NtRp5687
(dp5688
g62
(dp5689
sg71
g5662
sg64
(lp5690
g57
(g78
g59
NtRp5691
(dp5692
g62
(dp5693
g82
g83
ssg71
g5687
sg64
(lp5694
S'CONTENT_TYPE'
p5695
asbag57
(g78
g59
NtRp5696
(dp5697
g62
(dp5698
g89
g90
ssg71
g5687
sg64
(lp5699
S':'
asbag57
(g78
g59
NtRp5700
(dp5701
g62
(dp5702
sg71
g5687
sg64
(lp5703
g57
(g58
g59
NtRp5704
(dp5705
g62
(dp5706
g70
I3
ssg71
g5700
sg64
(lp5707
g3920
asbasbasbag57
(g73
g59
NtRp5708
(dp5709
g62
(dp5710
sg71
g5662
sg64
(lp5711
g57
(g78
g59
NtRp5712
(dp5713
g62
(dp5714
g82
g83
ssg71
g5708
sg64
(lp5715
S'HTTP_ACCEPT'
p5716
asbag57
(g78
g59
NtRp5717
(dp5718
g62
(dp5719
g89
g90
ssg71
g5708
sg64
(lp5720
S':'
asbag57
(g78
g59
NtRp5721
(dp5722
g62
(dp5723
sg71
g5708
sg64
(lp5724
g57
(g58
g59
NtRp5725
(dp5726
g62
(dp5727
g70
I3
ssg71
g5721
sg64
(lp5728
g4008
asbasbasbag57
(g73
g59
NtRp5729
(dp5730
g62
(dp5731
sg71
g5662
sg64
(lp5732
g57
(g78
g59
NtRp5733
(dp5734
g62
(dp5735
g82
g83
ssg71
g5729
sg64
(lp5736
S'HTTP_ACCEPT_ENCODING'
p5737
asbag57
(g78
g59
NtRp5738
(dp5739
g62
(dp5740
g89
g90
ssg71
g5729
sg64
(lp5741
S':'
asbag57
(g78
g59
NtRp5742
(dp5743
g62
(dp5744
sg71
g5729
sg64
(lp5745
g57
(g58
g59
NtRp5746
(dp5747
g62
(dp5748
g70
I3
ssg71
g5742
sg64
(lp5749
g4030
asbasbasbag57
(g73
g59
NtRp5750
(dp5751
g62
(dp5752
sg71
g5662
sg64
(lp5753
g57
(g78
g59
NtRp5754
(dp5755
g62
(dp5756
g82
g83
ssg71
g5750
sg64
(lp5757
S'HTTP_ACCEPT_LANGUAGE'
p5758
asbag57
(g78
g59
NtRp5759
(dp5760
g62
(dp5761
g89
g90
ssg71
g5750
sg64
(lp5762
S':'
asbag57
(g78
g59
NtRp5763
(dp5764
g62
(dp5765
sg71
g5750
sg64
(lp5766
g57
(g58
g59
NtRp5767
(dp5768
g62
(dp5769
g70
I3
ssg71
g5763
sg64
(lp5770
g4052
asbasbasbag57
(g73
g59
NtRp5771
(dp5772
g62
(dp5773
sg71
g5662
sg64
(lp5774
g57
(g78
g59
NtRp5775
(dp5776
g62
(dp5777
g82
g83
ssg71
g5771
sg64
(lp5778
S'HTTP_CONNECTION'
p5779
asbag57
(g78
g59
NtRp5780
(dp5781
g62
(dp5782
g89
g90
ssg71
g5771
sg64
(lp5783
S':'
asbag57
(g78
g59
NtRp5784
(dp5785
g62
(dp5786
sg71
g5771
sg64
(lp5787
g57
(g58
g59
NtRp5788
(dp5789
g62
(dp5790
g70
I3
ssg71
g5784
sg64
(lp5791
g4074
asbasbasbag57
(g73
g59
NtRp5792
(dp5793
g62
(dp5794
sg71
g5662
sg64
(lp5795
g57
(g78
g59
NtRp5796
(dp5797
g62
(dp5798
g82
g83
ssg71
g5792
sg64
(lp5799
S'HTTP_CONTENT_LENGTH'
p5800
asbag57
(g78
g59
NtRp5801
(dp5802
g62
(dp5803
g89
g90
ssg71
g5792
sg64
(lp5804
S':'
asbag57
(g78
g59
NtRp5805
(dp5806
g62
(dp5807
sg71
g5792
sg64
(lp5808
g57
(g58
g59
NtRp5809
(dp5810
g62
(dp5811
g70
I3
ssg71
g5805
sg64
(lp5812
g3898
asbasbasbag57
(g73
g59
NtRp5813
(dp5814
g62
(dp5815
sg71
g5662
sg64
(lp5816
g57
(g78
g59
NtRp5817
(dp5818
g62
(dp5819
g82
g83
ssg71
g5813
sg64
(lp5820
S'HTTP_CONTENT_TYPE'
p5821
asbag57
(g78
g59
NtRp5822
(dp5823
g62
(dp5824
g89
g90
ssg71
g5813
sg64
(lp5825
S':'
asbag57
(g78
g59
NtRp5826
(dp5827
g62
(dp5828
sg71
g5813
sg64
(lp5829
g57
(g58
g59
NtRp5830
(dp5831
g62
(dp5832
g70
I3
ssg71
g5826
sg64
(lp5833
g3920
asbasbasbag57
(g73
g59
NtRp5834
(dp5835
g62
(dp5836
sg71
g5662
sg64
(lp5837
g57
(g78
g59
NtRp5838
(dp5839
g62
(dp5840
g82
g83
ssg71
g5834
sg64
(lp5841
S'HTTP_COOKIE'
p5842
asbag57
(g78
g59
NtRp5843
(dp5844
g62
(dp5845
g89
g90
ssg71
g5834
sg64
(lp5846
S':'
asbag57
(g78
g59
NtRp5847
(dp5848
g62
(dp5849
sg71
g5834
sg64
(lp5850
g57
(g58
g59
NtRp5851
(dp5852
g62
(dp5853
g70
I3
ssg71
g5847
sg64
(lp5854
g4138
asbasbasbag57
(g73
g59
NtRp5855
(dp5856
g62
(dp5857
sg71
g5662
sg64
(lp5858
g57
(g78
g59
NtRp5859
(dp5860
g62
(dp5861
g82
g83
ssg71
g5855
sg64
(lp5862
S'HTTP_HOST'
p5863
asbag57
(g78
g59
NtRp5864
(dp5865
g62
(dp5866
g89
g90
ssg71
g5855
sg64
(lp5867
S':'
asbag57
(g78
g59
NtRp5868
(dp5869
g62
(dp5870
sg71
g5855
sg64
(lp5871
g57
(g58
g59
NtRp5872
(dp5873
g62
(dp5874
g70
I3
ssg71
g5868
sg64
(lp5875
g4160
asbasbasbag57
(g73
g59
NtRp5876
(dp5877
g62
(dp5878
sg71
g5662
sg64
(lp5879
g57
(g78
g59
NtRp5880
(dp5881
g62
(dp5882
g82
g83
ssg71
g5876
sg64
(lp5883
S'HTTP_ORIGIN'
p5884
asbag57
(g78
g59
NtRp5885
(dp5886
g62
(dp5887
g89
g90
ssg71
g5876
sg64
(lp5888
S':'
asbag57
(g78
g59
NtRp5889
(dp5890
g62
(dp5891
sg71
g5876
sg64
(lp5892
g57
(g58
g59
NtRp5893
(dp5894
g62
(dp5895
g70
I3
ssg71
g5889
sg64
(lp5896
g4182
asbasbasbag57
(g73
g59
NtRp5897
(dp5898
g62
(dp5899
sg71
g5662
sg64
(lp5900
g57
(g78
g59
NtRp5901
(dp5902
g62
(dp5903
g82
g83
ssg71
g5897
sg64
(lp5904
S'HTTP_REFERER'
p5905
asbag57
(g78
g59
NtRp5906
(dp5907
g62
(dp5908
g89
g90
ssg71
g5897
sg64
(lp5909
S':'
asbag57
(g78
g59
NtRp5910
(dp5911
g62
(dp5912
sg71
g5897
sg64
(lp5913
g57
(g58
g59
NtRp5914
(dp5915
g62
(dp5916
g70
I3
ssg71
g5910
sg64
(lp5917
g4204
asbasbasbag57
(g73
g59
NtRp5918
(dp5919
g62
(dp5920
sg71
g5662
sg64
(lp5921
g57
(g78
g59
NtRp5922
(dp5923
g62
(dp5924
g82
g83
ssg71
g5918
sg64
(lp5925
S'HTTP_USER_AGENT'
p5926
asbag57
(g78
g59
NtRp5927
(dp5928
g62
(dp5929
g89
g90
ssg71
g5918
sg64
(lp5930
S':'
asbag57
(g78
g59
NtRp5931
(dp5932
g62
(dp5933
sg71
g5918
sg64
(lp5934
g57
(g58
g59
NtRp5935
(dp5936
g62
(dp5937
g70
I3
ssg71
g5931
sg64
(lp5938
g4226
asbasbasbag57
(g73
g59
NtRp5939
(dp5940
g62
(dp5941
sg71
g5662
sg64
(lp5942
g57
(g78
g59
NtRp5943
(dp5944
g62
(dp5945
g82
g83
ssg71
g5939
sg64
(lp5946
S'HTTP_X_REQUESTED_WITH'
p5947
asbag57
(g78
g59
NtRp5948
(dp5949
g62
(dp5950
g89
g90
ssg71
g5939
sg64
(lp5951
S':'
asbag57
(g78
g59
NtRp5952
(dp5953
g62
(dp5954
sg71
g5939
sg64
(lp5955
g57
(g58
g59
NtRp5956
(dp5957
g62
(dp5958
g70
I3
ssg71
g5952
sg64
(lp5959
g4248
asbasbasbag57
(g73
g59
NtRp5960
(dp5961
g62
(dp5962
sg71
g5662
sg64
(lp5963
g57
(g78
g59
NtRp5964
(dp5965
g62
(dp5966
g82
g83
ssg71
g5960
sg64
(lp5967
S'PATH_INFO'
p5968
asbag57
(g78
g59
NtRp5969
(dp5970
g62
(dp5971
g89
g90
ssg71
g5960
sg64
(lp5972
S':'
asbag57
(g78
g59
NtRp5973
(dp5974
g62
(dp5975
sg71
g5960
sg64
(lp5976
g57
(g58
g59
NtRp5977
(dp5978
g62
(dp5979
g70
I3
ssg71
g5973
sg64
(lp5980
g4312
asbasbasbag57
(g73
g59
NtRp5981
(dp5982
g62
(dp5983
sg71
g5662
sg64
(lp5984
g57
(g78
g59
NtRp5985
(dp5986
g62
(dp5987
g82
g83
ssg71
g5981
sg64
(lp5988
S'QUERY_STRING'
p5989
asbag57
(g78
g59
NtRp5990
(dp5991
g62
(dp5992
g89
g90
ssg71
g5981
sg64
(lp5993
S':'
asbag57
(g78
g59
NtRp5994
(dp5995
g62
(dp5996
sg71
g5981
sg64
(lp5997
g57
(g58
g59
NtRp5998
(dp5999
g62
(dp6000
g70
I3
ssg71
g5994
sg64
(lp6001
S''
asbasbasbag57
(g73
g59
NtRp6002
(dp6003
g62
(dp6004
sg71
g5662
sg64
(lp6005
g57
(g78
g59
NtRp6006
(dp6007
g62
(dp6008
g82
g83
ssg71
g6002
sg64
(lp6009
S'REMOTE_ADDR'
p6010
asbag57
(g78
g59
NtRp6011
(dp6012
g62
(dp6013
g89
g90
ssg71
g6002
sg64
(lp6014
S':'
asbag57
(g78
g59
NtRp6015
(dp6016
g62
(dp6017
sg71
g6002
sg64
(lp6018
g57
(g58
g59
NtRp6019
(dp6020
g62
(dp6021
g70
I3
ssg71
g6015
sg64
(lp6022
g190
asbasbasbag57
(g73
g59
NtRp6023
(dp6024
g62
(dp6025
sg71
g5662
sg64
(lp6026
g57
(g78
g59
NtRp6027
(dp6028
g62
(dp6029
g82
g83
ssg71
g6023
sg64
(lp6030
S'REMOTE_PORT'
p6031
asbag57
(g78
g59
NtRp6032
(dp6033
g62
(dp6034
g89
g90
ssg71
g6023
sg64
(lp6035
S':'
asbag57
(g78
g59
NtRp6036
(dp6037
g62
(dp6038
sg71
g6023
sg64
(lp6039
g57
(g58
g59
NtRp6040
(dp6041
g62
(dp6042
g70
I3
ssg71
g6036
sg64
(lp6043
g4376
asbasbasbag57
(g73
g59
NtRp6044
(dp6045
g62
(dp6046
sg71
g5662
sg64
(lp6047
g57
(g78
g59
NtRp6048
(dp6049
g62
(dp6050
g82
g83
ssg71
g6044
sg64
(lp6051
S'REQUEST_METHOD'
p6052
asbag57
(g78
g59
NtRp6053
(dp6054
g62
(dp6055
g89
g90
ssg71
g6044
sg64
(lp6056
S':'
asbag57
(g78
g59
NtRp6057
(dp6058
g62
(dp6059
sg71
g6044
sg64
(lp6060
g57
(g58
g59
NtRp6061
(dp6062
g62
(dp6063
g70
I3
ssg71
g6057
sg64
(lp6064
g4398
asbasbasbag57
(g73
g59
NtRp6065
(dp6066
g62
(dp6067
sg71
g5662
sg64
(lp6068
g57
(g78
g59
NtRp6069
(dp6070
g62
(dp6071
g82
g83
ssg71
g6065
sg64
(lp6072
S'SCRIPT_NAME'
p6073
asbag57
(g78
g59
NtRp6074
(dp6075
g62
(dp6076
g89
g90
ssg71
g6065
sg64
(lp6077
S':'
asbag57
(g78
g59
NtRp6078
(dp6079
g62
(dp6080
sg71
g6065
sg64
(lp6081
g57
(g58
g59
NtRp6082
(dp6083
g62
(dp6084
g70
I3
ssg71
g6078
sg64
(lp6085
S''
asbasbasbag57
(g73
g59
NtRp6086
(dp6087
g62
(dp6088
sg71
g5662
sg64
(lp6089
g57
(g78
g59
NtRp6090
(dp6091
g62
(dp6092
g82
g83
ssg71
g6086
sg64
(lp6093
S'SERVER_NAME'
p6094
asbag57
(g78
g59
NtRp6095
(dp6096
g62
(dp6097
g89
g90
ssg71
g6086
sg64
(lp6098
S':'
asbag57
(g78
g59
NtRp6099
(dp6100
g62
(dp6101
sg71
g6086
sg64
(lp6102
g57
(g58
g59
NtRp6103
(dp6104
g62
(dp6105
g70
I3
ssg71
g6099
sg64
(lp6106
g4441
asbasbasbag57
(g73
g59
NtRp6107
(dp6108
g62
(dp6109
sg71
g5662
sg64
(lp6110
g57
(g78
g59
NtRp6111
(dp6112
g62
(dp6113
g82
g83
ssg71
g6107
sg64
(lp6114
S'SERVER_PORT'
p6115
asbag57
(g78
g59
NtRp6116
(dp6117
g62
(dp6118
g89
g90
ssg71
g6107
sg64
(lp6119
S':'
asbag57
(g78
g59
NtRp6120
(dp6121
g62
(dp6122
sg71
g6107
sg64
(lp6123
g57
(g58
g59
NtRp6124
(dp6125
g62
(dp6126
g70
I3
ssg71
g6120
sg64
(lp6127
g4463
asbasbasbag57
(g73
g59
NtRp6128
(dp6129
g62
(dp6130
sg71
g5662
sg64
(lp6131
g57
(g78
g59
NtRp6132
(dp6133
g62
(dp6134
g82
g83
ssg71
g6128
sg64
(lp6135
S'SERVER_PROTOCOL'
p6136
asbag57
(g78
g59
NtRp6137
(dp6138
g62
(dp6139
g89
g90
ssg71
g6128
sg64
(lp6140
S':'
asbag57
(g78
g59
NtRp6141
(dp6142
g62
(dp6143
sg71
g6128
sg64
(lp6144
g57
(g58
g59
NtRp6145
(dp6146
g62
(dp6147
g70
I3
ssg71
g6141
sg64
(lp6148
g4485
asbasbasbag57
(g73
g59
NtRp6149
(dp6150
g62
(dp6151
sg71
g5662
sg64
(lp6152
g57
(g78
g59
NtRp6153
(dp6154
g62
(dp6155
g82
g83
ssg71
g6149
sg64
(lp6156
S'SERVER_SOFTWARE'
p6157
asbag57
(g78
g59
NtRp6158
(dp6159
g62
(dp6160
g89
g90
ssg71
g6149
sg64
(lp6161
S':'
asbag57
(g78
g59
NtRp6162
(dp6163
g62
(dp6164
sg71
g6149
sg64
(lp6165
g57
(g58
g59
NtRp6166
(dp6167
g62
(dp6168
g70
I3
ssg71
g6162
sg64
(lp6169
g4507
asbasbasbag57
(g73
g59
NtRp6170
(dp6171
g62
(dp6172
sg71
g5662
sg64
(lp6173
g57
(g78
g59
NtRp6174
(dp6175
g62
(dp6176
g82
g83
ssg71
g6170
sg64
(lp6177
S'wsgi.errors'
p6178
asbag57
(g78
g59
NtRp6179
(dp6180
g62
(dp6181
g89
g90
ssg71
g6170
sg64
(lp6182
S':'
asbag57
(g78
g59
NtRp6183
(dp6184
g62
(dp6185
sg71
g6170
sg64
(lp6186
g57
(g58
g59
NtRp6187
(dp6188
g62
(dp6189
g70
I3
ssg71
g6183
sg64
(lp6190
S"<open file '<stderr>', mode 'w' at 0x7f226c86d270>"
p6191
asbasbasbag57
(g73
g59
NtRp6192
(dp6193
g62
(dp6194
sg71
g5662
sg64
(lp6195
g57
(g78
g59
NtRp6196
(dp6197
g62
(dp6198
g82
g83
ssg71
g6192
sg64
(lp6199
S'wsgi.file_wrapper'
p6200
asbag57
(g78
g59
NtRp6201
(dp6202
g62
(dp6203
g89
g90
ssg71
g6192
sg64
(lp6204
S':'
asbag57
(g78
g59
NtRp6205
(dp6206
g62
(dp6207
sg71
g6192
sg64
(lp6208
g57
(g58
g59
NtRp6209
(dp6210
g62
(dp6211
g70
I3
ssg71
g6205
sg64
(lp6212
S'<class wsgiref.util.FileWrapper at 0x14a22c0>'
p6213
asbasbasbag57
(g73
g59
NtRp6214
(dp6215
g62
(dp6216
sg71
g5662
sg64
(lp6217
g57
(g78
g59
NtRp6218
(dp6219
g62
(dp6220
g82
g83
ssg71
g6214
sg64
(lp6221
S'wsgi.input'
p6222
asbag57
(g78
g59
NtRp6223
(dp6224
g62
(dp6225
g89
g90
ssg71
g6214
sg64
(lp6226
S':'
asbag57
(g78
g59
NtRp6227
(dp6228
g62
(dp6229
sg71
g6214
sg64
(lp6230
g57
(g58
g59
NtRp6231
(dp6232
g62
(dp6233
g70
I3
ssg71
g6227
sg64
(lp6234
S"<open file '<fdopen>', mode 'w+b' at 0x7f22380325d0>"
p6235
asbasbasbag57
(g73
g59
NtRp6236
(dp6237
g62
(dp6238
sg71
g5662
sg64
(lp6239
g57
(g78
g59
NtRp6240
(dp6241
g62
(dp6242
g82
g83
ssg71
g6236
sg64
(lp6243
S'wsgi.multiprocess'
p6244
asbag57
(g78
g59
NtRp6245
(dp6246
g62
(dp6247
g89
g90
ssg71
g6236
sg64
(lp6248
S':'
asbag57
(g78
g59
NtRp6249
(dp6250
g62
(dp6251
sg71
g6236
sg64
(lp6252
g57
(g58
g59
NtRp6253
(dp6254
g62
(dp6255
g70
I3
ssg71
g6249
sg64
(lp6256
g3964
asbasbasbag57
(g73
g59
NtRp6257
(dp6258
g62
(dp6259
sg71
g5662
sg64
(lp6260
g57
(g78
g59
NtRp6261
(dp6262
g62
(dp6263
g82
g83
ssg71
g6257
sg64
(lp6264
S'wsgi.multithread'
p6265
asbag57
(g78
g59
NtRp6266
(dp6267
g62
(dp6268
g89
g90
ssg71
g6257
sg64
(lp6269
S':'
asbag57
(g78
g59
NtRp6270
(dp6271
g62
(dp6272
sg71
g6257
sg64
(lp6273
g57
(g58
g59
NtRp6274
(dp6275
g62
(dp6276
g70
I3
ssg71
g6270
sg64
(lp6277
g100
asbasbasbag57
(g73
g59
NtRp6278
(dp6279
g62
(dp6280
sg71
g5662
sg64
(lp6281
g57
(g78
g59
NtRp6282
(dp6283
g62
(dp6284
g82
g83
ssg71
g6278
sg64
(lp6285
S'wsgi.run_once'
p6286
asbag57
(g78
g59
NtRp6287
(dp6288
g62
(dp6289
g89
g90
ssg71
g6278
sg64
(lp6290
S':'
asbag57
(g78
g59
NtRp6291
(dp6292
g62
(dp6293
sg71
g6278
sg64
(lp6294
g57
(g58
g59
NtRp6295
(dp6296
g62
(dp6297
g70
I3
ssg71
g6291
sg64
(lp6298
g3964
asbasbasbag57
(g73
g59
NtRp6299
(dp6300
g62
(dp6301
sg71
g5662
sg64
(lp6302
g57
(g78
g59
NtRp6303
(dp6304
g62
(dp6305
g82
g83
ssg71
g6299
sg64
(lp6306
S'wsgi.url_scheme'
p6307
asbag57
(g78
g59
NtRp6308
(dp6309
g62
(dp6310
g89
g90
ssg71
g6299
sg64
(lp6311
S':'
asbag57
(g78
g59
NtRp6312
(dp6313
g62
(dp6314
sg71
g6299
sg64
(lp6315
g57
(g58
g59
NtRp6316
(dp6317
g62
(dp6318
g70
I3
ssg71
g6312
sg64
(lp6319
g4789
asbasbasbag57
(g73
g59
NtRp6320
(dp6321
g62
(dp6322
sg71
g5662
sg64
(lp6323
g57
(g78
g59
NtRp6324
(dp6325
g62
(dp6326
g82
g83
ssg71
g6320
sg64
(lp6327
S'wsgi.version'
p6328
asbag57
(g78
g59
NtRp6329
(dp6330
g62
(dp6331
g89
g90
ssg71
g6320
sg64
(lp6332
S':'
asbag57
(g78
g59
NtRp6333
(dp6334
g62
(dp6335
sg71
g6320
sg64
(lp6336
g57
(g58
g59
NtRp6337
(dp6338
g62
(dp6339
g70
I3
ssg71
g6333
sg64
(lp6340
S'1'
asbasbasbasbasbasbasbasbasbasbasbasbasbsS'frames'
p6341
(lp6342
(dp6343
S'file'
p6344
S'/usr/lib/pymodules/python2.7/gluon/restricted.py'
p6345
sS'dump'
p6346
(dp6347
S'environment'
p6348
S"{'A': <class 'gluon.html.A'>, 'Auth': <class 'gluon.tools.Auth'>, 'B': <class 'gluon.html.B'>, 'BEAUTIFY': <class 'gluon.html.BEAUTIFY'>, 'BODY': <class 'gluon.html.BODY'>, 'BR': <class 'gluon.html.BR'>, 'BUTTON': <class 'gluon.html.BUTTON'>, 'CAT': <class 'gluon.html.CAT'>, 'CENTER': <class 'gluon.html.CENTER'>, 'CLEANUP': <class 'gluon.validators.CLEANUP'>, ...}"
p6349
sS'ccode'
p6350
S'<code object <module> at 0x7f22305e4bb0, file "/...ons/FileManager/controllers/default.py", line 10>'
p6351
ssS'lnum'
p6352
I205
sS'lines'
p6353
(dp6354
I200
S'    try:'
p6355
sI201
S'        if type(code) == types.CodeType:'
p6356
sI202
S'            ccode = code'
p6357
sI203
S'        else:'
p6358
sI204
S'            ccode = compile2(code,layer)'
p6359
sI205
S'        exec ccode in environment'
p6360
sI206
S'    except HTTP:'
p6361
sI207
S'        raise'
p6362
sI208
S'    except RestrictedError:'
p6363
sI209
S'        # do not encapsulate (obfuscate) the original RestrictedError'
p6364
ssS'call'
p6365
S"(code='# -*- coding: utf-8 -*- \\r\\n\\r\\n####################...n pathset\\r\\n\\nresponse._vars=response._caller(add)\\n', environment={'A': <class 'gluon.html.A'>, 'Auth': <class 'gluon.tools.Auth'>, 'B': <class 'gluon.html.B'>, 'BEAUTIFY': <class 'gluon.html.BEAUTIFY'>, 'BODY': <class 'gluon.html.BODY'>, 'BR': <class 'gluon.html.BR'>, 'BUTTON': <class 'gluon.html.BUTTON'>, 'CAT': <class 'gluon.html.CAT'>, 'CENTER': <class 'gluon.html.CENTER'>, 'CLEANUP': <class 'gluon.validators.CLEANUP'>, ...}, layer='/home/shantanu/web2py/applications/FileManager/controllers/default.py')"
p6366
sS'func'
p6367
S'restricted'
p6368
sa(dp6369
g6344
S'/home/shantanu/web2py/applications/FileManager/controllers/default.py'
p6370
sg6346
(dp6371
sg6352
I399
sg6353
(dp6372
I388
S'        pathset.append(path)'
p6373
sI389
S'        rows=db((db.allfiles.parentpath==path)&(db.allfiles.user==me)).select()'
p6374
sI390
S'        for row in rows:'
p6375
sI391
S"            if row.filetype=='dir':"
p6376
sI392
S'                remove(row.filepath,pathset=pathset)'
p6377
sI393
S'            else:'
p6378
sI394
S'                pathset.append(row.filepath)'
p6379
sI395
S'    else:'
p6380
sI396
S'        pathset.append(path)'
p6381
sI397
S'    return pathset'
p6382
ssg6365
S'()'
p6383
sg6367
S'<module>'
p6384
sa(dp6385
g6344
S'/usr/lib/pymodules/python2.7/gluon/globals.py'
p6386
sg6346
(dp6387
S'self'
p6388
S'undefined'
p6389
sS'f'
S'<function add>'
p6390
ssg6352
I173
sg6353
(dp6391
I168
S'        self.menu = []             # used by the default view layout'
p6392
sI169
S'        self.files = []            # used by web2py_ajax.html'
p6393
sI170
S'        self.generic_patterns = [] # patterns to allow generic views'
p6394
sI171
S"        self.delimiters = ('{{','}}')"
p6395
sI172
S'        self._vars = None'
p6396
sI173
S'        self._caller = lambda f: f()'
p6397
sI174
S'        self._view_environment = None'
p6398
sI175
S'        self._custom_commit = None'
p6399
sI176
S'        self._custom_rollback = None'
p6400
sI177
S''
ssg6365
S'(f=<function add>)'
p6401
sg6367
S'<lambda>'
p6402
sa(dp6403
g6344
S'/home/shantanu/web2py/applications/FileManager/controllers/default.py'
p6404
sg6346
(dp6405
S'file.filename'
p6406
g6389
sS'file'
p6407
S"''"
p6408
sS'filename'
p6409
g6389
ssg6352
I320
sg6353
(dp6410
I320
S"    filename=file.filename.replace(' ','_')"
p6411
sI321
S''
sI322
S'    filepath=parentpath+filename'
p6412
sI323
S'    filetype=os.path.splitext(filename)[1][1:]'
p6413
sI324
S'    row=db((db.allfiles.parentpath==parentpath)&(db.allfiles.filepath==filepath)&(db.allfiles.filename==filename) \\'
p6414
sI315
S''
sI316
S''
sI317
S'def add():'
p6415
sI318
S'    parentpath=request.vars.currentpath'
p6416
sI319
S'    file=request.vars.file'
p6417
ssg6365
S'()'
p6418
sg6367
S'add'
p6419
sasS'pyver'
p6420
S'Python 2.7.3: /usr/bin/python'
p6421
sS'session'
p6422
g57
(g58
g59
NtRp6423
(dp6424
g62
(dp6425
sg64
(lp6426
g57
(g66
g59
NtRp6427
(dp6428
g62
(dp6429
g70
I5
ssg71
Nsg64
(lp6430
sbasbsS'etype'
p6431
S"<type 'exceptions.AttributeError'>"
p6432
sS'date'
p6433
S'Fri Jan  4 05:52:00 1980'
p6434
sS'response'
p6435
g57
(g58
g59
NtRp6436
(dp6437
g62
(dp6438
sg64
(lp6439
g57
(g66
g59
NtRp6440
(dp6441
g62
(dp6442
g70
I5
ssg71
Nsg64
(lp6443
g57
(g73
g59
NtRp6444
(dp6445
g62
(dp6446
sg71
g6440
sg64
(lp6447
g57
(g78
g59
NtRp6448
(dp6449
g62
(dp6450
g82
g83
ssg71
g6444
sg64
(lp6451
g155
asbag57
(g78
g59
NtRp6452
(dp6453
g62
(dp6454
g89
g90
ssg71
g6444
sg64
(lp6455
S':'
asbag57
(g78
g59
NtRp6456
(dp6457
g62
(dp6458
sg71
g6444
sg64
(lp6459
g57
(g58
g59
NtRp6460
(dp6461
g62
(dp6462
g70
I5
ssg71
g6456
sg64
(lp6463
S'<cStringIO.StringO object at 0x7f223832b730>'
p6464
asbasbasbag57
(g73
g59
NtRp6465
(dp6466
g62
(dp6467
sg71
g6440
sg64
(lp6468
g57
(g78
g59
NtRp6469
(dp6470
g62
(dp6471
g82
g83
ssg71
g6465
sg64
(lp6472
g221
asbag57
(g78
g59
NtRp6473
(dp6474
g62
(dp6475
g89
g90
ssg71
g6465
sg64
(lp6476
S':'
asbag57
(g78
g59
NtRp6477
(dp6478
g62
(dp6479
sg71
g6465
sg64
(lp6480
g57
(g58
g59
NtRp6481
(dp6482
g62
(dp6483
g70
I5
ssg71
g6477
sg64
(lp6484
g57
(g66
g59
NtRp6485
(dp6486
g62
(dp6487
g70
I4
ssg71
Nsg64
(lp6488
g57
(g73
g59
NtRp6489
(dp6490
g62
(dp6491
sg71
g6485
sg64
(lp6492
g57
(g78
g59
NtRp6493
(dp6494
g62
(dp6495
g82
g83
ssg71
g6489
sg64
(lp6496
S'session_id_filemanager'
p6497
asbag57
(g78
g59
NtRp6498
(dp6499
g62
(dp6500
g89
g90
ssg71
g6489
sg64
(lp6501
S':'
asbag57
(g78
g59
NtRp6502
(dp6503
g62
(dp6504
sg71
g6489
sg64
(lp6505
g57
(g58
g59
NtRp6506
(dp6507
g62
(dp6508
g70
I4
ssg71
g6502
sg64
(lp6509
g57
(g66
g59
NtRp6510
(dp6511
g62
(dp6512
g70
I3
ssg71
Nsg64
(lp6513
g57
(g73
g59
NtRp6514
(dp6515
g62
(dp6516
sg71
g6510
sg64
(lp6517
g57
(g78
g59
NtRp6518
(dp6519
g62
(dp6520
g82
g83
ssg71
g6514
sg64
(lp6521
g271
asbag57
(g78
g59
NtRp6522
(dp6523
g62
(dp6524
g89
g90
ssg71
g6514
sg64
(lp6525
S':'
asbag57
(g78
g59
NtRp6526
(dp6527
g62
(dp6528
sg71
g6514
sg64
(lp6529
g57
(g58
g59
NtRp6530
(dp6531
g62
(dp6532
g70
I3
ssg71
g6526
sg64
(lp6533
S''
asbasbasbag57
(g73
g59
NtRp6534
(dp6535
g62
(dp6536
sg71
g6510
sg64
(lp6537
g57
(g78
g59
NtRp6538
(dp6539
g62
(dp6540
g82
g83
ssg71
g6534
sg64
(lp6541
g292
asbag57
(g78
g59
NtRp6542
(dp6543
g62
(dp6544
g89
g90
ssg71
g6534
sg64
(lp6545
S':'
asbag57
(g78
g59
NtRp6546
(dp6547
g62
(dp6548
sg71
g6534
sg64
(lp6549
g57
(g58
g59
NtRp6550
(dp6551
g62
(dp6552
g70
I3
ssg71
g6546
sg64
(lp6553
S''
asbasbasbag57
(g73
g59
NtRp6554
(dp6555
g62
(dp6556
sg71
g6510
sg64
(lp6557
g57
(g78
g59
NtRp6558
(dp6559
g62
(dp6560
g82
g83
ssg71
g6554
sg64
(lp6561
g313
asbag57
(g78
g59
NtRp6562
(dp6563
g62
(dp6564
g89
g90
ssg71
g6554
sg64
(lp6565
S':'
asbag57
(g78
g59
NtRp6566
(dp6567
g62
(dp6568
sg71
g6554
sg64
(lp6569
g57
(g58
g59
NtRp6570
(dp6571
g62
(dp6572
g70
I3
ssg71
g6566
sg64
(lp6573
S''
asbasbasbag57
(g73
g59
NtRp6574
(dp6575
g62
(dp6576
sg71
g6510
sg64
(lp6577
g57
(g78
g59
NtRp6578
(dp6579
g62
(dp6580
g82
g83
ssg71
g6574
sg64
(lp6581
g334
asbag57
(g78
g59
NtRp6582
(dp6583
g62
(dp6584
g89
g90
ssg71
g6574
sg64
(lp6585
S':'
asbag57
(g78
g59
NtRp6586
(dp6587
g62
(dp6588
sg71
g6574
sg64
(lp6589
g57
(g58
g59
NtRp6590
(dp6591
g62
(dp6592
g70
I3
ssg71
g6586
sg64
(lp6593
S''
asbasbasbag57
(g73
g59
NtRp6594
(dp6595
g62
(dp6596
sg71
g6510
sg64
(lp6597
g57
(g78
g59
NtRp6598
(dp6599
g62
(dp6600
g82
g83
ssg71
g6594
sg64
(lp6601
g355
asbag57
(g78
g59
NtRp6602
(dp6603
g62
(dp6604
g89
g90
ssg71
g6594
sg64
(lp6605
S':'
asbag57
(g78
g59
NtRp6606
(dp6607
g62
(dp6608
sg71
g6594
sg64
(lp6609
g57
(g58
g59
NtRp6610
(dp6611
g62
(dp6612
g70
I3
ssg71
g6606
sg64
(lp6613
S''
asbasbasbag57
(g73
g59
NtRp6614
(dp6615
g62
(dp6616
sg71
g6510
sg64
(lp6617
g57
(g78
g59
NtRp6618
(dp6619
g62
(dp6620
g82
g83
ssg71
g6614
sg64
(lp6621
g376
asbag57
(g78
g59
NtRp6622
(dp6623
g62
(dp6624
g89
g90
ssg71
g6614
sg64
(lp6625
S':'
asbag57
(g78
g59
NtRp6626
(dp6627
g62
(dp6628
sg71
g6614
sg64
(lp6629
g57
(g58
g59
NtRp6630
(dp6631
g62
(dp6632
g70
I3
ssg71
g6626
sg64
(lp6633
S'/'
asbasbasbag57
(g73
g59
NtRp6634
(dp6635
g62
(dp6636
sg71
g6510
sg64
(lp6637
g57
(g78
g59
NtRp6638
(dp6639
g62
(dp6640
g82
g83
ssg71
g6634
sg64
(lp6641
g397
asbag57
(g78
g59
NtRp6642
(dp6643
g62
(dp6644
g89
g90
ssg71
g6634
sg64
(lp6645
S':'
asbag57
(g78
g59
NtRp6646
(dp6647
g62
(dp6648
sg71
g6634
sg64
(lp6649
g57
(g58
g59
NtRp6650
(dp6651
g62
(dp6652
g70
I3
ssg71
g6646
sg64
(lp6653
S''
asbasbasbag57
(g73
g59
NtRp6654
(dp6655
g62
(dp6656
sg71
g6510
sg64
(lp6657
g57
(g78
g59
NtRp6658
(dp6659
g62
(dp6660
g82
g83
ssg71
g6654
sg64
(lp6661
g418
asbag57
(g78
g59
NtRp6662
(dp6663
g62
(dp6664
g89
g90
ssg71
g6654
sg64
(lp6665
S':'
asbag57
(g78
g59
NtRp6666
(dp6667
g62
(dp6668
sg71
g6654
sg64
(lp6669
g57
(g58
g59
NtRp6670
(dp6671
g62
(dp6672
g70
I3
ssg71
g6666
sg64
(lp6673
S''
asbasbasbasbasbasbasbasbasbasbasbag57
(g73
g59
NtRp6674
(dp6675
g62
(dp6676
sg71
g6440
sg64
(lp6677
g57
(g78
g59
NtRp6678
(dp6679
g62
(dp6680
g82
g83
ssg71
g6674
sg64
(lp6681
S'delimiters'
p6682
asbag57
(g78
g59
NtRp6683
(dp6684
g62
(dp6685
g89
g90
ssg71
g6674
sg64
(lp6686
S':'
asbag57
(g78
g59
NtRp6687
(dp6688
g62
(dp6689
sg71
g6674
sg64
(lp6690
g57
(g58
g59
NtRp6691
(dp6692
g62
(dp6693
g70
I5
ssg71
g6687
sg64
(lp6694
g57
(g66
g59
NtRp6695
(dp6696
g62
(dp6697
g70
I4
ssg71
Nsg64
(lp6698
g57
(g73
g59
NtRp6699
(dp6700
g62
(dp6701
sg71
g6695
sg64
(lp6702
g57
(g78
g59
NtRp6703
(dp6704
g62
(dp6705
sg71
g6699
sg64
(lp6706
g57
(g58
g59
NtRp6707
(dp6708
g62
(dp6709
g70
I4
ssg71
g6703
sg64
(lp6710
S'{{'
p6711
asbasbasbag57
(g73
g59
NtRp6712
(dp6713
g62
(dp6714
sg71
g6695
sg64
(lp6715
g57
(g78
g59
NtRp6716
(dp6717
g62
(dp6718
sg71
g6712
sg64
(lp6719
g57
(g58
g59
NtRp6720
(dp6721
g62
(dp6722
g70
I4
ssg71
g6716
sg64
(lp6723
S'}}'
p6724
asbasbasbasbasbasbasbag57
(g73
g59
NtRp6725
(dp6726
g62
(dp6727
sg71
g6440
sg64
(lp6728
g57
(g78
g59
NtRp6729
(dp6730
g62
(dp6731
g82
g83
ssg71
g6725
sg64
(lp6732
S'files'
p6733
asbag57
(g78
g59
NtRp6734
(dp6735
g62
(dp6736
g89
g90
ssg71
g6725
sg64
(lp6737
S':'
asbag57
(g78
g59
NtRp6738
(dp6739
g62
(dp6740
sg71
g6725
sg64
(lp6741
g57
(g58
g59
NtRp6742
(dp6743
g62
(dp6744
g70
I5
ssg71
g6738
sg64
(lp6745
g57
(g66
g59
NtRp6746
(dp6747
g62
(dp6748
g70
I4
ssg71
Nsg64
(lp6749
sbasbasbasbag57
(g73
g59
NtRp6750
(dp6751
g62
(dp6752
sg71
g6440
sg64
(lp6753
g57
(g78
g59
NtRp6754
(dp6755
g62
(dp6756
g82
g83
ssg71
g6750
sg64
(lp6757
S'flash'
p6758
asbag57
(g78
g59
NtRp6759
(dp6760
g62
(dp6761
g89
g90
ssg71
g6750
sg64
(lp6762
S':'
asbag57
(g78
g59
NtRp6763
(dp6764
g62
(dp6765
sg71
g6750
sg64
(lp6766
g57
(g58
g59
NtRp6767
(dp6768
g62
(dp6769
g70
I5
ssg71
g6763
sg64
(lp6770
S''
asbasbasbag57
(g73
g59
NtRp6771
(dp6772
g62
(dp6773
sg71
g6440
sg64
(lp6774
g57
(g78
g59
NtRp6775
(dp6776
g62
(dp6777
g82
g83
ssg71
g6771
sg64
(lp6778
S'generic_patterns'
p6779
asbag57
(g78
g59
NtRp6780
(dp6781
g62
(dp6782
g89
g90
ssg71
g6771
sg64
(lp6783
S':'
asbag57
(g78
g59
NtRp6784
(dp6785
g62
(dp6786
sg71
g6771
sg64
(lp6787
g57
(g58
g59
NtRp6788
(dp6789
g62
(dp6790
g70
I5
ssg71
g6784
sg64
(lp6791
g57
(g66
g59
NtRp6792
(dp6793
g62
(dp6794
g70
I4
ssg71
Nsg64
(lp6795
sbasbasbasbag57
(g73
g59
NtRp6796
(dp6797
g62
(dp6798
sg71
g6440
sg64
(lp6799
g57
(g78
g59
NtRp6800
(dp6801
g62
(dp6802
g82
g83
ssg71
g6796
sg64
(lp6803
S'headers'
p6804
asbag57
(g78
g59
NtRp6805
(dp6806
g62
(dp6807
g89
g90
ssg71
g6796
sg64
(lp6808
S':'
asbag57
(g78
g59
NtRp6809
(dp6810
g62
(dp6811
sg71
g6796
sg64
(lp6812
g57
(g58
g59
NtRp6813
(dp6814
g62
(dp6815
g70
I5
ssg71
g6809
sg64
(lp6816
g57
(g66
g59
NtRp6817
(dp6818
g62
(dp6819
g70
I4
ssg71
Nsg64
(lp6820
g57
(g73
g59
NtRp6821
(dp6822
g62
(dp6823
sg71
g6817
sg64
(lp6824
g57
(g78
g59
NtRp6825
(dp6826
g62
(dp6827
g82
g83
ssg71
g6821
sg64
(lp6828
S'Cache-Control'
p6829
asbag57
(g78
g59
NtRp6830
(dp6831
g62
(dp6832
g89
g90
ssg71
g6821
sg64
(lp6833
S':'
asbag57
(g78
g59
NtRp6834
(dp6835
g62
(dp6836
sg71
g6821
sg64
(lp6837
g57
(g58
g59
NtRp6838
(dp6839
g62
(dp6840
g70
I4
ssg71
g6834
sg64
(lp6841
S'no-store, no-cache, must-revalidate, post-check=0, pre-check=0'
p6842
asbasbasbag57
(g73
g59
NtRp6843
(dp6844
g62
(dp6845
sg71
g6817
sg64
(lp6846
g57
(g78
g59
NtRp6847
(dp6848
g62
(dp6849
g82
g83
ssg71
g6843
sg64
(lp6850
S'Content-Type'
p6851
asbag57
(g78
g59
NtRp6852
(dp6853
g62
(dp6854
g89
g90
ssg71
g6843
sg64
(lp6855
S':'
asbag57
(g78
g59
NtRp6856
(dp6857
g62
(dp6858
sg71
g6843
sg64
(lp6859
g57
(g58
g59
NtRp6860
(dp6861
g62
(dp6862
g70
I4
ssg71
g6856
sg64
(lp6863
S'text/html; charset=utf-8'
p6864
asbasbasbag57
(g73
g59
NtRp6865
(dp6866
g62
(dp6867
sg71
g6817
sg64
(lp6868
g57
(g78
g59
NtRp6869
(dp6870
g62
(dp6871
g82
g83
ssg71
g6865
sg64
(lp6872
S'Expires'
p6873
asbag57
(g78
g59
NtRp6874
(dp6875
g62
(dp6876
g89
g90
ssg71
g6865
sg64
(lp6877
S':'
asbag57
(g78
g59
NtRp6878
(dp6879
g62
(dp6880
sg71
g6865
sg64
(lp6881
g57
(g58
g59
NtRp6882
(dp6883
g62
(dp6884
g70
I4
ssg71
g6878
sg64
(lp6885
S'Fri, 04 Jan 1980 00:22:00 GMT'
p6886
asbasbasbag57
(g73
g59
NtRp6887
(dp6888
g62
(dp6889
sg71
g6817
sg64
(lp6890
g57
(g78
g59
NtRp6891
(dp6892
g62
(dp6893
g82
g83
ssg71
g6887
sg64
(lp6894
S'Pragma'
p6895
asbag57
(g78
g59
NtRp6896
(dp6897
g62
(dp6898
g89
g90
ssg71
g6887
sg64
(lp6899
S':'
asbag57
(g78
g59
NtRp6900
(dp6901
g62
(dp6902
sg71
g6887
sg64
(lp6903
g57
(g58
g59
NtRp6904
(dp6905
g62
(dp6906
g70
I4
ssg71
g6900
sg64
(lp6907
S'no-cache'
p6908
asbasbasbag57
(g73
g59
NtRp6909
(dp6910
g62
(dp6911
sg71
g6817
sg64
(lp6912
g57
(g78
g59
NtRp6913
(dp6914
g62
(dp6915
g82
g83
ssg71
g6909
sg64
(lp6916
S'X-Powered-By'
p6917
asbag57
(g78
g59
NtRp6918
(dp6919
g62
(dp6920
g89
g90
ssg71
g6909
sg64
(lp6921
S':'
asbag57
(g78
g59
NtRp6922
(dp6923
g62
(dp6924
sg71
g6909
sg64
(lp6925
g57
(g58
g59
NtRp6926
(dp6927
g62
(dp6928
g70
I4
ssg71
g6922
sg64
(lp6929
S'web2py'
p6930
asbasbasbasbasbasbasbag57
(g73
g59
NtRp6931
(dp6932
g62
(dp6933
sg71
g6440
sg64
(lp6934
g57
(g78
g59
NtRp6935
(dp6936
g62
(dp6937
g82
g83
ssg71
g6931
sg64
(lp6938
S'menu'
p6939
asbag57
(g78
g59
NtRp6940
(dp6941
g62
(dp6942
g89
g90
ssg71
g6931
sg64
(lp6943
S':'
asbag57
(g78
g59
NtRp6944
(dp6945
g62
(dp6946
sg71
g6931
sg64
(lp6947
g57
(g58
g59
NtRp6948
(dp6949
g62
(dp6950
g70
I5
ssg71
g6944
sg64
(lp6951
g57
(g66
g59
NtRp6952
(dp6953
g62
(dp6954
g70
I4
ssg71
Nsg64
(lp6955
g57
(g73
g59
NtRp6956
(dp6957
g62
(dp6958
sg71
g6952
sg64
(lp6959
g57
(g78
g59
NtRp6960
(dp6961
g62
(dp6962
sg71
g6956
sg64
(lp6963
g57
(g58
g59
NtRp6964
(dp6965
g62
(dp6966
g70
I4
ssg71
g6960
sg64
(lp6967
g57
(g66
g59
NtRp6968
(dp6969
g62
(dp6970
g70
I3
ssg71
Nsg64
(lp6971
g57
(g73
g59
NtRp6972
(dp6973
g62
(dp6974
sg71
g6968
sg64
(lp6975
g57
(g78
g59
NtRp6976
(dp6977
g62
(dp6978
sg71
g6972
sg64
(lp6979
g57
(g58
g59
NtRp6980
(dp6981
g62
(dp6982
g70
I3
ssg71
g6976
sg64
(lp6983
cgluon.languages
lazyT_unpickle
p6984
(S't\x05\x00\x00\x00Index'
tRp6985
asbasbasbag57
(g73
g59
NtRp6986
(dp6987
g62
(dp6988
sg71
g6968
sg64
(lp6989
g57
(g78
g59
NtRp6990
(dp6991
g62
(dp6992
sg71
g6986
sg64
(lp6993
g57
(g58
g59
NtRp6994
(dp6995
g62
(dp6996
g70
I3
ssg71
g6990
sg64
(lp6997
g3964
asbasbasbag57
(g73
g59
NtRp6998
(dp6999
g62
(dp7000
sg71
g6968
sg64
(lp7001
g57
(g78
g59
NtRp7002
(dp7003
g62
(dp7004
sg71
g6998
sg64
(lp7005
g57
(g58
g59
NtRp7006
(dp7007
g62
(dp7008
g70
I3
ssg71
g7002
sg64
(lp7009
S'/FileManager/default/index'
p7010
asbasbasbag57
(g73
g59
NtRp7011
(dp7012
g62
(dp7013
sg71
g6968
sg64
(lp7014
g57
(g78
g59
NtRp7015
(dp7016
g62
(dp7017
sg71
g7011
sg64
(lp7018
g57
(g58
g59
NtRp7019
(dp7020
g62
(dp7021
g70
I3
ssg71
g7015
sg64
(lp7022
g57
(g66
g59
NtRp7023
(dp7024
g62
(dp7025
g70
I2
ssg71
Nsg64
(lp7026
sbasbasbasbasbasbasbasbasbasbasbasbag57
(g73
g59
NtRp7027
(dp7028
g62
(dp7029
sg71
g6440
sg64
(lp7030
g57
(g78
g59
NtRp7031
(dp7032
g62
(dp7033
g82
g83
ssg71
g7027
sg64
(lp7034
S'menu_edit'
p7035
asbag57
(g78
g59
NtRp7036
(dp7037
g62
(dp7038
g89
g90
ssg71
g7027
sg64
(lp7039
S':'
asbag57
(g78
g59
NtRp7040
(dp7041
g62
(dp7042
sg71
g7027
sg64
(lp7043
g57
(g58
g59
NtRp7044
(dp7045
g62
(dp7046
g70
I5
ssg71
g7040
sg64
(lp7047
g57
(g66
g59
NtRp7048
(dp7049
g62
(dp7050
g70
I4
ssg71
Nsg64
(lp7051
g57
(g73
g59
NtRp7052
(dp7053
g62
(dp7054
sg71
g7048
sg64
(lp7055
g57
(g78
g59
NtRp7056
(dp7057
g62
(dp7058
sg71
g7052
sg64
(lp7059
g57
(g58
g59
NtRp7060
(dp7061
g62
(dp7062
g70
I4
ssg71
g7056
sg64
(lp7063
g57
(g66
g59
NtRp7064
(dp7065
g62
(dp7066
g70
I3
ssg71
Nsg64
(lp7067
g57
(g73
g59
NtRp7068
(dp7069
g62
(dp7070
sg71
g7064
sg64
(lp7071
g57
(g78
g59
NtRp7072
(dp7073
g62
(dp7074
sg71
g7068
sg64
(lp7075
g57
(g58
g59
NtRp7076
(dp7077
g62
(dp7078
g70
I3
ssg71
g7072
sg64
(lp7079
g6984
(S't\x04\x00\x00\x00Edit'
tRp7080
asbasbasbag57
(g73
g59
NtRp7081
(dp7082
g62
(dp7083
sg71
g7064
sg64
(lp7084
g57
(g78
g59
NtRp7085
(dp7086
g62
(dp7087
sg71
g7081
sg64
(lp7088
g57
(g58
g59
NtRp7089
(dp7090
g62
(dp7091
g70
I3
ssg71
g7085
sg64
(lp7092
g3964
asbasbasbag57
(g73
g59
NtRp7093
(dp7094
g62
(dp7095
sg71
g7064
sg64
(lp7096
g57
(g78
g59
NtRp7097
(dp7098
g62
(dp7099
sg71
g7093
sg64
(lp7100
g57
(g58
g59
NtRp7101
(dp7102
g62
(dp7103
g70
I3
ssg71
g7097
sg64
(lp7104
S'/admin/default/design/FileManager'
p7105
asbasbasbag57
(g73
g59
NtRp7106
(dp7107
g62
(dp7108
sg71
g7064
sg64
(lp7109
g57
(g78
g59
NtRp7110
(dp7111
g62
(dp7112
sg71
g7106
sg64
(lp7113
g57
(g58
g59
NtRp7114
(dp7115
g62
(dp7116
g70
I3
ssg71
g7110
sg64
(lp7117
g57
(g66
g59
NtRp7118
(dp7119
g62
(dp7120
g70
I2
ssg71
Nsg64
(lp7121
g57
(g73
g59
NtRp7122
(dp7123
g62
(dp7124
sg71
g7118
sg64
(lp7125
g57
(g78
g59
NtRp7126
(dp7127
g62
(dp7128
sg71
g7122
sg64
(lp7129
g57
(g58
g59
NtRp7130
(dp7131
g62
(dp7132
g70
I2
ssg71
g7126
sg64
(lp7133
g57
(g66
g59
NtRp7134
(dp7135
g62
(dp7136
g70
I1
ssg71
Nsg64
(lp7137
g57
(g73
g59
NtRp7138
(dp7139
g62
(dp7140
sg71
g7134
sg64
(lp7141
g57
(g78
g59
NtRp7142
(dp7143
g62
(dp7144
sg71
g7138
sg64
(lp7145
g57
(g58
g59
NtRp7146
(dp7147
g62
(dp7148
g70
I1
ssg71
g7142
sg64
(lp7149
g6984
(S't\n\x00\x00\x00Controller'
tRp7150
asbasbasbag57
(g73
g59
NtRp7151
(dp7152
g62
(dp7153
sg71
g7134
sg64
(lp7154
g57
(g78
g59
NtRp7155
(dp7156
g62
(dp7157
sg71
g7151
sg64
(lp7158
g57
(g58
g59
NtRp7159
(dp7160
g62
(dp7161
g70
I1
ssg71
g7155
sg64
(lp7162
I00
asbasbasbag57
(g73
g59
NtRp7163
(dp7164
g62
(dp7165
sg71
g7134
sg64
(lp7166
g57
(g78
g59
NtRp7167
(dp7168
g62
(dp7169
sg71
g7163
sg64
(lp7170
g57
(g58
g59
NtRp7171
(dp7172
g62
(dp7173
g70
I1
ssg71
g7167
sg64
(lp7174
S'/admin/default/edit/FileManager/controllers/default.py'
p7175
asbasbasbasbasbasbasbag57
(g73
g59
NtRp7176
(dp7177
g62
(dp7178
sg71
g7118
sg64
(lp7179
g57
(g78
g59
NtRp7180
(dp7181
g62
(dp7182
sg71
g7176
sg64
(lp7183
g57
(g58
g59
NtRp7184
(dp7185
g62
(dp7186
g70
I2
ssg71
g7180
sg64
(lp7187
g57
(g66
g59
NtRp7188
(dp7189
g62
(dp7190
g70
I1
ssg71
Nsg64
(lp7191
g57
(g73
g59
NtRp7192
(dp7193
g62
(dp7194
sg71
g7188
sg64
(lp7195
g57
(g78
g59
NtRp7196
(dp7197
g62
(dp7198
sg71
g7192
sg64
(lp7199
g57
(g58
g59
NtRp7200
(dp7201
g62
(dp7202
g70
I1
ssg71
g7196
sg64
(lp7203
g6984
(S't\x04\x00\x00\x00View'
tRp7204
asbasbasbag57
(g73
g59
NtRp7205
(dp7206
g62
(dp7207
sg71
g7188
sg64
(lp7208
g57
(g78
g59
NtRp7209
(dp7210
g62
(dp7211
sg71
g7205
sg64
(lp7212
g57
(g58
g59
NtRp7213
(dp7214
g62
(dp7215
g70
I1
ssg71
g7209
sg64
(lp7216
I00
asbasbasbag57
(g73
g59
NtRp7217
(dp7218
g62
(dp7219
sg71
g7188
sg64
(lp7220
g57
(g78
g59
NtRp7221
(dp7222
g62
(dp7223
sg71
g7217
sg64
(lp7224
g57
(g58
g59
NtRp7225
(dp7226
g62
(dp7227
g70
I1
ssg71
g7221
sg64
(lp7228
S'/admin/default/edit/FileManager/views/default/add.html'
p7229
asbasbasbasbasbasbasbag57
(g73
g59
NtRp7230
(dp7231
g62
(dp7232
sg71
g7118
sg64
(lp7233
g57
(g78
g59
NtRp7234
(dp7235
g62
(dp7236
sg71
g7230
sg64
(lp7237
g57
(g58
g59
NtRp7238
(dp7239
g62
(dp7240
g70
I2
ssg71
g7234
sg64
(lp7241
g57
(g66
g59
NtRp7242
(dp7243
g62
(dp7244
g70
I1
ssg71
Nsg64
(lp7245
g57
(g73
g59
NtRp7246
(dp7247
g62
(dp7248
sg71
g7242
sg64
(lp7249
g57
(g78
g59
NtRp7250
(dp7251
g62
(dp7252
sg71
g7246
sg64
(lp7253
g57
(g58
g59
NtRp7254
(dp7255
g62
(dp7256
g70
I1
ssg71
g7250
sg64
(lp7257
g6984
(S't\x06\x00\x00\x00Layout'
tRp7258
asbasbasbag57
(g73
g59
NtRp7259
(dp7260
g62
(dp7261
sg71
g7242
sg64
(lp7262
g57
(g78
g59
NtRp7263
(dp7264
g62
(dp7265
sg71
g7259
sg64
(lp7266
g57
(g58
g59
NtRp7267
(dp7268
g62
(dp7269
g70
I1
ssg71
g7263
sg64
(lp7270
I00
asbasbasbag57
(g73
g59
NtRp7271
(dp7272
g62
(dp7273
sg71
g7242
sg64
(lp7274
g57
(g78
g59
NtRp7275
(dp7276
g62
(dp7277
sg71
g7271
sg64
(lp7278
g57
(g58
g59
NtRp7279
(dp7280
g62
(dp7281
g70
I1
ssg71
g7275
sg64
(lp7282
S'/admin/default/edit/FileManager/views/layout.html'
p7283
asbasbasbasbasbasbasbag57
(g73
g59
NtRp7284
(dp7285
g62
(dp7286
sg71
g7118
sg64
(lp7287
g57
(g78
g59
NtRp7288
(dp7289
g62
(dp7290
sg71
g7284
sg64
(lp7291
g57
(g58
g59
NtRp7292
(dp7293
g62
(dp7294
g70
I2
ssg71
g7288
sg64
(lp7295
g57
(g66
g59
NtRp7296
(dp7297
g62
(dp7298
g70
I1
ssg71
Nsg64
(lp7299
g57
(g73
g59
NtRp7300
(dp7301
g62
(dp7302
sg71
g7296
sg64
(lp7303
g57
(g78
g59
NtRp7304
(dp7305
g62
(dp7306
sg71
g7300
sg64
(lp7307
g57
(g58
g59
NtRp7308
(dp7309
g62
(dp7310
g70
I1
ssg71
g7304
sg64
(lp7311
g6984
(S't\n\x00\x00\x00Stylesheet'
tRp7312
asbasbasbag57
(g73
g59
NtRp7313
(dp7314
g62
(dp7315
sg71
g7296
sg64
(lp7316
g57
(g78
g59
NtRp7317
(dp7318
g62
(dp7319
sg71
g7313
sg64
(lp7320
g57
(g58
g59
NtRp7321
(dp7322
g62
(dp7323
g70
I1
ssg71
g7317
sg64
(lp7324
I00
asbasbasbag57
(g73
g59
NtRp7325
(dp7326
g62
(dp7327
sg71
g7296
sg64
(lp7328
g57
(g78
g59
NtRp7329
(dp7330
g62
(dp7331
sg71
g7325
sg64
(lp7332
g57
(g58
g59
NtRp7333
(dp7334
g62
(dp7335
g70
I1
ssg71
g7329
sg64
(lp7336
S'/admin/default/edit/FileManager/static/base.css'
p7337
asbasbasbasbasbasbasbag57
(g73
g59
NtRp7338
(dp7339
g62
(dp7340
sg71
g7118
sg64
(lp7341
g57
(g78
g59
NtRp7342
(dp7343
g62
(dp7344
sg71
g7338
sg64
(lp7345
g57
(g58
g59
NtRp7346
(dp7347
g62
(dp7348
g70
I2
ssg71
g7342
sg64
(lp7349
g57
(g66
g59
NtRp7350
(dp7351
g62
(dp7352
g70
I1
ssg71
Nsg64
(lp7353
g57
(g73
g59
NtRp7354
(dp7355
g62
(dp7356
sg71
g7350
sg64
(lp7357
g57
(g78
g59
NtRp7358
(dp7359
g62
(dp7360
sg71
g7354
sg64
(lp7361
g57
(g58
g59
NtRp7362
(dp7363
g62
(dp7364
g70
I1
ssg71
g7358
sg64
(lp7365
g6984
(S's\x08\x00\x00\x00DB Model'
tRp7366
asbasbasbag57
(g73
g59
NtRp7367
(dp7368
g62
(dp7369
sg71
g7350
sg64
(lp7370
g57
(g78
g59
NtRp7371
(dp7372
g62
(dp7373
sg71
g7367
sg64
(lp7374
g57
(g58
g59
NtRp7375
(dp7376
g62
(dp7377
g70
I1
ssg71
g7371
sg64
(lp7378
I00
asbasbasbag57
(g73
g59
NtRp7379
(dp7380
g62
(dp7381
sg71
g7350
sg64
(lp7382
g57
(g78
g59
NtRp7383
(dp7384
g62
(dp7385
sg71
g7379
sg64
(lp7386
g57
(g58
g59
NtRp7387
(dp7388
g62
(dp7389
g70
I1
ssg71
g7383
sg64
(lp7390
S'/admin/default/edit/FileManager/models/db.py'
p7391
asbasbasbasbasbasbasbag57
(g73
g59
NtRp7392
(dp7393
g62
(dp7394
sg71
g7118
sg64
(lp7395
g57
(g78
g59
NtRp7396
(dp7397
g62
(dp7398
sg71
g7392
sg64
(lp7399
g57
(g58
g59
NtRp7400
(dp7401
g62
(dp7402
g70
I2
ssg71
g7396
sg64
(lp7403
g57
(g66
g59
NtRp7404
(dp7405
g62
(dp7406
g70
I1
ssg71
Nsg64
(lp7407
g57
(g73
g59
NtRp7408
(dp7409
g62
(dp7410
sg71
g7404
sg64
(lp7411
g57
(g78
g59
NtRp7412
(dp7413
g62
(dp7414
sg71
g7408
sg64
(lp7415
g57
(g58
g59
NtRp7416
(dp7417
g62
(dp7418
g70
I1
ssg71
g7412
sg64
(lp7419
g6984
(S's\n\x00\x00\x00Menu Model'
tRp7420
asbasbasbag57
(g73
g59
NtRp7421
(dp7422
g62
(dp7423
sg71
g7404
sg64
(lp7424
g57
(g78
g59
NtRp7425
(dp7426
g62
(dp7427
sg71
g7421
sg64
(lp7428
g57
(g58
g59
NtRp7429
(dp7430
g62
(dp7431
g70
I1
ssg71
g7425
sg64
(lp7432
I00
asbasbasbag57
(g73
g59
NtRp7433
(dp7434
g62
(dp7435
sg71
g7404
sg64
(lp7436
g57
(g78
g59
NtRp7437
(dp7438
g62
(dp7439
sg71
g7433
sg64
(lp7440
g57
(g58
g59
NtRp7441
(dp7442
g62
(dp7443
g70
I1
ssg71
g7437
sg64
(lp7444
S'/admin/default/edit/FileManager/models/menu.py'
p7445
asbasbasbasbasbasbasbag57
(g73
g59
NtRp7446
(dp7447
g62
(dp7448
sg71
g7118
sg64
(lp7449
g57
(g78
g59
NtRp7450
(dp7451
g62
(dp7452
sg71
g7446
sg64
(lp7453
g57
(g58
g59
NtRp7454
(dp7455
g62
(dp7456
g70
I2
ssg71
g7450
sg64
(lp7457
g57
(g66
g59
NtRp7458
(dp7459
g62
(dp7460
g70
I1
ssg71
Nsg64
(lp7461
g57
(g73
g59
NtRp7462
(dp7463
g62
(dp7464
sg71
g7458
sg64
(lp7465
g57
(g78
g59
NtRp7466
(dp7467
g62
(dp7468
sg71
g7462
sg64
(lp7469
g57
(g58
g59
NtRp7470
(dp7471
g62
(dp7472
g70
I1
ssg71
g7466
sg64
(lp7473
g6984
(S't\x08\x00\x00\x00Database'
tRp7474
asbasbasbag57
(g73
g59
NtRp7475
(dp7476
g62
(dp7477
sg71
g7458
sg64
(lp7478
g57
(g78
g59
NtRp7479
(dp7480
g62
(dp7481
sg71
g7475
sg64
(lp7482
g57
(g58
g59
NtRp7483
(dp7484
g62
(dp7485
g70
I1
ssg71
g7479
sg64
(lp7486
I00
asbasbasbag57
(g73
g59
NtRp7487
(dp7488
g62
(dp7489
sg71
g7458
sg64
(lp7490
g57
(g78
g59
NtRp7491
(dp7492
g62
(dp7493
sg71
g7487
sg64
(lp7494
g57
(g58
g59
NtRp7495
(dp7496
g62
(dp7497
g70
I1
ssg71
g7491
sg64
(lp7498
S'/FileManager/appadmin/index'
p7499
asbasbasbasbasbasbasbasbasbasbasbasbasbasbasbasbasbasbasbag57
(g73
g59
NtRp7500
(dp7501
g62
(dp7502
sg71
g6440
sg64
(lp7503
g57
(g78
g59
NtRp7504
(dp7505
g62
(dp7506
g82
g83
ssg71
g7500
sg64
(lp7507
S'meta'
p7508
asbag57
(g78
g59
NtRp7509
(dp7510
g62
(dp7511
g89
g90
ssg71
g7500
sg64
(lp7512
S':'
asbag57
(g78
g59
NtRp7513
(dp7514
g62
(dp7515
sg71
g7500
sg64
(lp7516
g57
(g58
g59
NtRp7517
(dp7518
g62
(dp7519
g70
I5
ssg71
g7513
sg64
(lp7520
g57
(g66
g59
NtRp7521
(dp7522
g62
(dp7523
g70
I4
ssg71
Nsg64
(lp7524
sbasbasbasbag57
(g73
g59
NtRp7525
(dp7526
g62
(dp7527
sg71
g6440
sg64
(lp7528
g57
(g78
g59
NtRp7529
(dp7530
g62
(dp7531
g82
g83
ssg71
g7525
sg64
(lp7532
S'postprocessing'
p7533
asbag57
(g78
g59
NtRp7534
(dp7535
g62
(dp7536
g89
g90
ssg71
g7525
sg64
(lp7537
S':'
asbag57
(g78
g59
NtRp7538
(dp7539
g62
(dp7540
sg71
g7525
sg64
(lp7541
g57
(g58
g59
NtRp7542
(dp7543
g62
(dp7544
g70
I5
ssg71
g7538
sg64
(lp7545
g57
(g66
g59
NtRp7546
(dp7547
g62
(dp7548
g70
I4
ssg71
Nsg64
(lp7549
sbasbasbasbag57
(g73
g59
NtRp7550
(dp7551
g62
(dp7552
sg71
g6440
sg64
(lp7553
g57
(g78
g59
NtRp7554
(dp7555
g62
(dp7556
g82
g83
ssg71
g7550
sg64
(lp7557
S'session_filename'
p7558
asbag57
(g78
g59
NtRp7559
(dp7560
g62
(dp7561
g89
g90
ssg71
g7550
sg64
(lp7562
S':'
asbag57
(g78
g59
NtRp7563
(dp7564
g62
(dp7565
sg71
g7550
sg64
(lp7566
g57
(g58
g59
NtRp7567
(dp7568
g62
(dp7569
g70
I5
ssg71
g7563
sg64
(lp7570
S'/home/shantanu/web2py/applications/FileManager/sessions/127.0.0.1-186c1397-8dbd-47ce-9c74-f346705a3532'
p7571
asbasbasbag57
(g73
g59
NtRp7572
(dp7573
g62
(dp7574
sg71
g6440
sg64
(lp7575
g57
(g78
g59
NtRp7576
(dp7577
g62
(dp7578
g82
g83
ssg71
g7572
sg64
(lp7579
S'session_id'
p7580
asbag57
(g78
g59
NtRp7581
(dp7582
g62
(dp7583
g89
g90
ssg71
g7572
sg64
(lp7584
S':'
asbag57
(g78
g59
NtRp7585
(dp7586
g62
(dp7587
sg71
g7572
sg64
(lp7588
g57
(g58
g59
NtRp7589
(dp7590
g62
(dp7591
g70
I5
ssg71
g7585
sg64
(lp7592
S'127.0.0.1-186c1397-8dbd-47ce-9c74-f346705a3532'
p7593
asbasbasbag57
(g73
g59
NtRp7594
(dp7595
g62
(dp7596
sg71
g6440
sg64
(lp7597
g57
(g78
g59
NtRp7598
(dp7599
g62
(dp7600
g82
g83
ssg71
g7594
sg64
(lp7601
S'session_id_name'
p7602
asbag57
(g78
g59
NtRp7603
(dp7604
g62
(dp7605
g89
g90
ssg71
g7594
sg64
(lp7606
S':'
asbag57
(g78
g59
NtRp7607
(dp7608
g62
(dp7609
sg71
g7594
sg64
(lp7610
g57
(g58
g59
NtRp7611
(dp7612
g62
(dp7613
g70
I5
ssg71
g7607
sg64
(lp7614
g6497
asbasbasbag57
(g73
g59
NtRp7615
(dp7616
g62
(dp7617
sg71
g6440
sg64
(lp7618
g57
(g78
g59
NtRp7619
(dp7620
g62
(dp7621
g82
g83
ssg71
g7615
sg64
(lp7622
S'session_new'
p7623
asbag57
(g78
g59
NtRp7624
(dp7625
g62
(dp7626
g89
g90
ssg71
g7615
sg64
(lp7627
S':'
asbag57
(g78
g59
NtRp7628
(dp7629
g62
(dp7630
sg71
g7615
sg64
(lp7631
g57
(g58
g59
NtRp7632
(dp7633
g62
(dp7634
g70
I5
ssg71
g7628
sg64
(lp7635
g100
asbasbasbag57
(g73
g59
NtRp7636
(dp7637
g62
(dp7638
sg71
g6440
sg64
(lp7639
g57
(g78
g59
NtRp7640
(dp7641
g62
(dp7642
g82
g83
ssg71
g7636
sg64
(lp7643
S'status'
p7644
asbag57
(g78
g59
NtRp7645
(dp7646
g62
(dp7647
g89
g90
ssg71
g7636
sg64
(lp7648
S':'
asbag57
(g78
g59
NtRp7649
(dp7650
g62
(dp7651
sg71
g7636
sg64
(lp7652
g57
(g58
g59
NtRp7653
(dp7654
g62
(dp7655
g70
I5
ssg71
g7649
sg64
(lp7656
S'200'
p7657
asbasbasbag57
(g73
g59
NtRp7658
(dp7659
g62
(dp7660
sg71
g6440
sg64
(lp7661
g57
(g78
g59
NtRp7662
(dp7663
g62
(dp7664
g82
g83
ssg71
g7658
sg64
(lp7665
S'subtitle'
p7666
asbag57
(g78
g59
NtRp7667
(dp7668
g62
(dp7669
g89
g90
ssg71
g7658
sg64
(lp7670
S':'
asbag57
(g78
g59
NtRp7671
(dp7672
g62
(dp7673
sg71
g7658
sg64
(lp7674
g57
(g58
g59
NtRp7675
(dp7676
g62
(dp7677
g70
I5
ssg71
g7671
sg64
(lp7678
g6984
(S's\r\x00\x00\x00customize me!'
tRp7679
asbasbasbag57
(g73
g59
NtRp7680
(dp7681
g62
(dp7682
sg71
g6440
sg64
(lp7683
g57
(g78
g59
NtRp7684
(dp7685
g62
(dp7686
g82
g83
ssg71
g7680
sg64
(lp7687
S'title'
p7688
asbag57
(g78
g59
NtRp7689
(dp7690
g62
(dp7691
g89
g90
ssg71
g7680
sg64
(lp7692
S':'
asbag57
(g78
g59
NtRp7693
(dp7694
g62
(dp7695
sg71
g7680
sg64
(lp7696
g57
(g58
g59
NtRp7697
(dp7698
g62
(dp7699
g70
I5
ssg71
g7693
sg64
(lp7700
g122
asbasbasbag57
(g73
g59
NtRp7701
(dp7702
g62
(dp7703
sg71
g6440
sg64
(lp7704
g57
(g78
g59
NtRp7705
(dp7706
g62
(dp7707
g82
g83
ssg71
g7701
sg64
(lp7708
g5497
asbag57
(g78
g59
NtRp7709
(dp7710
g62
(dp7711
g89
g90
ssg71
g7701
sg64
(lp7712
S':'
asbag57
(g78
g59
NtRp7713
(dp7714
g62
(dp7715
sg71
g7701
sg64
(lp7716
g57
(g58
g59
NtRp7717
(dp7718
g62
(dp7719
g70
I5
ssg71
g7713
sg64
(lp7720
g5510
asbasbasbag57
(g73
g59
NtRp7721
(dp7722
g62
(dp7723
sg71
g6440
sg64
(lp7724
g57
(g78
g59
NtRp7725
(dp7726
g62
(dp7727
g82
g83
ssg71
g7721
sg64
(lp7728
S'view'
p7729
asbag57
(g78
g59
NtRp7730
(dp7731
g62
(dp7732
g89
g90
ssg71
g7721
sg64
(lp7733
S':'
asbag57
(g78
g59
NtRp7734
(dp7735
g62
(dp7736
sg71
g7721
sg64
(lp7737
g57
(g58
g59
NtRp7738
(dp7739
g62
(dp7740
g70
I5
ssg71
g7734
sg64
(lp7741
S'default/add.html'
p7742
asbasbasbasbasbsS'locals'
p7743
(dp7744
g6344
S"''"
p7745
sS'parentpath'
p7746
S"'/Videos/'"
p7747
sssS'traceback'
p7748
S'Traceback (most recent call last):\n  File "/usr/lib/pymodules/python2.7/gluon/restricted.py", line 205, in restricted\n    exec ccode in environment\n  File "/home/shantanu/web2py/applications/FileManager/controllers/default.py", line 399, in <module>\n  File "/usr/lib/pymodules/python2.7/gluon/globals.py", line 173, in <lambda>\n    self._caller = lambda f: f()\n  File "/home/shantanu/web2py/applications/FileManager/controllers/default.py", line 320, in add\n    filename=file.filename.replace(\' \',\'_\')\nAttributeError: \'str\' object has no attribute \'filename\'\n'
p7749
s.